; ================================================================
; OS-9 Level II Equates
; ================================================================
NUL      EQU    $00      ; null
CurXY    EQU    $02      ; set cursor: row+$20 col+$20 follow
BEL      EQU    $07      ; bell
BS       EQU    $08      ; backspace
LF       EQU    $0A      ; line feed
FF       EQU    $0C      ; form feed / clear screen + home
CR       EQU    $0D      ; carriage return
SUB      EQU    $1A      ; clear screen + home (alternate)
ESC      EQU    $1B      ; escape — windowing command prefix

; OS-9 Windowing (follow ESC)
W.DWSet  EQU    $20
W.Select EQU    $21
W.OWSet  EQU    $22      ; SVS CPX CPY SZX SZY PRN1 PRN2
W.OWEnd  EQU    $23
W.DWEnd  EQU    $24
W.CWArea EQU    $25      ; CPX CPY SZX SZY
W.DefClr EQU    $30
W.FColor EQU    $32      ; palette 0-15
W.Bcolor EQU    $33      ; palette 0-15
W.Border EQU    $34
W.DWProt EQU    $36
W.Font   EQU    $3A
W.BoldSw EQU    $3D
W.CurU   EQU    $41
W.CurD   EQU    $42
W.CurR   EQU    $43
W.CurL   EQU    $44
W.ClrHm  EQU    $45
W.Home   EQU    $48
W.ClrEOS EQU    $4A
W.ClrEOL EQU    $4B
W.InsLn  EQU    $4C
W.DelLn  EQU    $4D
W.DelCh  EQU    $4E
W.InsCh  EQU    $4F
W.ScRgn  EQU    $52
W.ScrlU  EQU    $53
W.ScrlD  EQU    $54
W.CurXY  EQU    $59      ; row+$20 col+$20
W.FgCol  EQU    $70
W.BgCol  EQU    $71
W.RevOn  EQU    $78
W.RevOff EQU    $79
W.UndOn  EQU    $7A
W.UndOff EQU    $7B

; Path numbers
STDIN    EQU    0
STDOUT   EQU    1
STDERR   EQU    2

; I$Open mode flags
O.Read   EQU    $01
O.Write  EQU    $02
O.RdWr   EQU    $03
O.Exec   EQU    $04
O.Dir    EQU    $05

; OS-9 I/O system calls
I$Attach EQU    $80
I$Detach EQU    $81
I$Dup    EQU    $82
I$Create EQU    $83
I$Open   EQU    $84
I$MakDir EQU    $85
I$ChgDir EQU    $86
I$Delete EQU    $87
I$Seek   EQU    $88
I$Read   EQU    $89
I$Write  EQU    $8A
I$ReadLn EQU    $8B
I$WritLn EQU    $8C
I$GetStt EQU    $8D
I$SetStt EQU    $8E
I$Close  EQU    $8F
I$DupS   EQU    $90

; OS-9 F$ system calls
F$Link   EQU    $00
F$Load   EQU    $01
F$UnLink EQU    $02
F$Fork   EQU    $03
F$Wait   EQU    $04
F$Chain  EQU    $05
F$Exit   EQU    $06
F$Mem    EQU    $07
F$Send   EQU    $08
F$Icpt   EQU    $09
F$Sleep  EQU    $0A
F$SSpd   EQU    $0B
F$ID     EQU    $0C
F$SPrior EQU    $0D
F$SSWI   EQU    $0E
F$PErr   EQU    $0F
F$PrsNam EQU    $10
F$CmpNam EQU    $11
F$SchBit EQU    $12
F$AllBit EQU    $13
F$DelBit EQU    $14
F$Time   EQU    $15
F$STime  EQU    $16
F$CRC    EQU    $17
F$GPrDsc EQU    $18
F$GBlkMp EQU    $19
F$GModDr EQU    $1A
F$CpyMem EQU    $1B
F$SUser  EQU    $1C
F$UnLoad EQU    $1D
F$RTE    EQU    $1E
F$GPrDBT EQU    $1F
F$Julian EQU    $20
F$TLink  EQU    $21
F$DFork  EQU    $22
F$DExec  EQU    $23
F$DExit  EQU    $24
F$DaTim  EQU    $25
F$ALARM  EQU    $26
F$SigMask EQU   $27
F$NMLink EQU    $28
; ================================================================

; ==============================================================
; Disassembly:  supercomm21
; Module:       SuperComm
; Type:         program  ($11)
; Size:         $3758  (14168 bytes)
; Entry:        $08CD
; BSS:          $2000  (8192 bytes)
; CRC-24:       $FEA79E
; ==============================================================

; ----- Module Header -----
ModHeader
         FDB    $87CD             ; OS-9 module sync bytes
         FDB    ModCRC-ModHeader   ; module size (content + 3 CRC bytes)
         FDB    ModName           ; name offset
         FCB    $11               ; type: program
         FCB    $81               ; language
         FCB    $47               ; attributes/parity
         FDB    Init              ; execution entry
         FDB    $2000             ; BSS size

; ----- Module Name -----
ModName
         FCS    "SuperComm"

; ==============================================================
; Pre-exec data  (post-name)—$08CC
; Everything here is DATA — no executable code.
; ==============================================================

         FCB    $01               ; SOH
         FCC    "Program by Dave Philipsen Copyright (c) 1988"

Dat_0043
; Referenced by: $099B
         FCB    $00               ; NUL
         FCB    $4C               ; 'L'
         FCB    $0C               ; FF clear+home
         FCB    CurXY,$22,$20     ; CurXY(row=2,col=0)
         FCC    "SuperComm  version 2.1  "
         FCB    CurXY,$21,$22     ; CurXY(row=1,col=2)
         FCC    "Copyright (c) 1988, 1989"
         FCB    CurXY,$24,$24     ; CurXY(row=4,col=4)
         FCC    "By  Dave Philipsen"

Dat_0091
; Referenced by: $2388
         FCB    $00               ; NUL
         FCB    $1A               ; SUB clear+home
         FCB    CurXY,$40,$20     ; CurXY(row=32,col=0)
         FCC    "SuperComm  2.1    port="

Dat_00AD
; Referenced by: $0DAA
         FCB    CurXY,$00,$20     ; CurXY(row=-32,col=0)
         FCC    "  Use <ALT> key with the following keys:"
         FDB    $0D0A             ; CRLF
         FCB    $0A               ; LF
         FCC    " A - Auto Dialer           Q - Quit"
         FDB    $0D0A             ; CRLF
         FCC    " B - Baud Rates            R - Reset Palettes"
         FDB    $0D0A             ; CRLF
         FCC    " C - Clear Screen          S - OS9 Shell Access"
         FDB    $0D0A             ; CRLF
         FCC    " D - Change Directory      T - Terminal Type"
         FDB    $0D0A             ; CRLF
         FCC    " E - External (host)       U - Update SuperComm"
         FDB    $0D0A             ; CRLF
         FCC    " F - File Capture          W - True Ymodem (batch)"
         FDB    $0D0A             ; CRLF
         FCC    " H - Help (this screen)    X - Xmodem Transfer"
         FDB    $0D0A             ; CRLF
         FCC    " M - Open/Close Buffer     Y - Ymodem Transfer"
         FDB    $0D0A             ; CRLF
         FCC    " O - Change Options        Z - Conference Mode"
         FCB    $0A               ; LF
         FCB    $0D               ; CR
         FCB    $0A               ; LF
         FCC    "     Select function or <Space> to continue"

Dat_02AF
; Referenced by: $2511
         FCS    "CONNECT"

Dat_02B6
; Referenced by: $2538
         FCS    "BUSY"

Dat_02BA
; Referenced by: Loc_2AF2
         FCC    "ATH"
         FCB    $0D               ; CR

Dat_02BE
; Referenced by: $12E6
         FCS    "Shell"

Dat_02C3
; Referenced by: $12E2
         FCB    $0D               ; CR

Dat_02C4
; Referenced by: Loc_0901
         FCC    "/t2"
         FCB    $0D               ; CR
         FCB    NUL,NUL,NUL,NUL  ; NUL×4

Dat_02CC
; Referenced by: $14FE
         FCB    $00               ; NUL
         FCB    $20               ; ' '
         FCB    $00               ; NUL
         FCB    $3F               ; '?'
         FCB    $10               ; $10
         FCC    " ??"
         FCB    $00               ; NUL
         FCB    $20               ; ' '
         FCB    $00               ; NUL
         FCB    $3F               ; '?'
         FCB    $10               ; $10
         FCC    " ??"

Dat_02DC
; Referenced by: Loc_1527
         FCB    $00               ; NUL
         FCB    $24               ; '$'
         FCB    $12               ; $12
         FCB    $37               ; '7'
         FCB    $09               ; HT
         FCB    $28               ; '('
         FCB    $1F               ; $1F
         FCB    $3F               ; '?'
         FCB    $00               ; NUL
         FCB    $24               ; '$'
         FCB    $12               ; $12
         FCB    $37               ; '7'
         FCB    $09               ; HT
         FCB    $28               ; '('
         FCB    $1F               ; $1F
         FCB    $3F               ; '?'

Dat_02EC
; Referenced by: $150A
         FCB    $3F               ; '?'
         FCB    $09               ; HT
         FCB    $00               ; NUL
         FCB    $12               ; $12
         FCC    "$7("
         FCB    $1F               ; $1F
         FCB    $3F               ; '?'
         FCB    $09               ; HT
         FCB    $00               ; NUL
         FCB    $12               ; $12
         FCC    "$7("
         FCB    $1F               ; $1F

Dat_02FC
; Referenced by: Loc_1576
         FCB    $07               ; BEL
         FCB    $00               ; NUL
         FCB    $00               ; NUL

Dat_02FF
; Referenced by: $1570
         FCB    $00               ; NUL
         FCB    $02               ; STX
         FCB    $02               ; STX

Dat_0302
; Referenced by: Sub_0F46
         FCB    $00               ; NUL
         FCB    $07               ; BEL
         FCB    $1F               ; $1F
         FCB    $21               ; '!'
         FCB    $1F               ; $1F
         FCB    $23               ; '#'
         FCB    $1F               ; $1F
         FCB    $25               ; '%'
         FCB    $0C               ; FF clear+home
         FCB    $00               ; NUL
         FCB    $07               ; BEL
         FCB    ESC,W.CWArea,$00,$01,$50,$17  ; CPX=0 CPY=1 SZX=80 SZY=23
         FCB    $0D               ; CR
         FCB    $00               ; NUL
         FCB    $08               ; BS
         FCB    ESC,W.CWArea,$00,$00,$50,$18  ; CPX=0 CPY=0 SZX=80 SZY=24
         FCB    $0C               ; FF clear+home
         FCB    $0D               ; CR
         FCB    $00               ; NUL
         FCB    $12               ; $12

Dat_0320
; Referenced by: $12B1
         FCB    ESC,W.OWSet      ; Overlay Window Set
         FCB    $01               ; SVS=save+restore
         FCB    $00,$00,$50,$17  ; CPX=0 CPY=0 SZX=80 SZY=23
         FCB    $01,$01          ; PRN1=1 PRN2=1
         FCB    ESC,W.OWSet      ; Overlay Window Set
         FCB    $01               ; SVS=save+restore
         FCB    $02,$01,$4C,$15  ; CPX=2 CPY=1 SZX=76 SZY=21
         FCB    $06,$00          ; PRN1=6 PRN2=0

Dat_032C
         FCB    CurXY,$01,$4C     ; CurXY(row=-31,col=44)
         FCB    $15               ; NAK erase-EOS
         FCB    $06               ; $06
         FCB    $00               ; NUL

Dat_0332
; Referenced by: $0DD8, Loc_0DEB, $0F8B
         FCB    $00               ; NUL
         FCB    $04               ; EOT

Dat_0334
; Referenced by: $12F7
         FCB    ESC,W.OWEnd      ; Overlay Window End
         FCB    ESC,W.OWEnd      ; Overlay Window End

Dat_0338
; Referenced by: $171C, $182F
         FCB    BS,BS,BS,BS,BS,BS  ; BS×6
         FCB    BS,BS,BS,BS,BS,BS  ; BS×6

Dat_0344
; Referenced by: $0CA4, $129B
         FCB    $00               ; NUL
         FCB    $0E               ; SO cursor-right
         FCB    $1F               ; $1F
         FCB    $21               ; '!'
         FCB    $1F               ; $1F
         FCB    $23               ; '#'
         FCB    $1F               ; $1F
         FCB    $25               ; '%'
         FCB    ESC,W.FColor,$07         ; Foreground Color palette[7]
         FCB    ESC,W.Bcolor,$00         ; Background Color palette[0]
         FCB    $05               ; $05
         FCB    $21               ; '!'

Dat_0354
; Referenced by: $0C72
         FCB    NUL,NUL,NUL,NUL,NUL,NUL  ; NUL×6
         FCB    NUL,NUL,NUL,NUL,NUL,NUL  ; NUL×6
         FCB    NUL,NUL,NUL,NUL,NUL,NUL  ; NUL×6
         FCB    NUL,NUL,NUL  ; NUL×3
         FCB    CurXY,$1F,$22     ; CurXY(row=-1,col=2)
         FCB    $00               ; NUL
         FCB    $00               ; NUL
         FCB    CurXY,$1F,$24     ; CurXY(row=-1,col=4)
         FCB    NUL,NUL,NUL,NUL,NUL,NUL  ; NUL×6
         FCB    NUL  ; NUL×1
         FCB    CurXY,$1F,$20     ; CurXY(row=-1,col=0)
         FCB    $00               ; NUL

Dat_037C
; Referenced by: $0C87
         FCB    $00               ; NUL
         FCB    $03               ; ETX
         FCB    ESC,W.FColor,$00         ; Foreground Color palette[0]
         FCB    $00               ; NUL
         FCB    $03               ; ETX
         FCB    ESC,W.FColor,$01         ; Foreground Color palette[1]
         FCB    $00               ; NUL
         FCB    $03               ; ETX
         FCB    ESC,W.FColor,$02         ; Foreground Color palette[2]
         FCB    $00               ; NUL
         FCB    $03               ; ETX
         FCB    ESC,W.FColor,$03         ; Foreground Color palette[3]
         FCB    $00               ; NUL
         FCB    $03               ; ETX
         FCB    ESC,W.FColor,$04         ; Foreground Color palette[4]
         FCB    $00               ; NUL
         FCB    $03               ; ETX
         FCB    ESC,W.FColor,$05         ; Foreground Color palette[5]
         FCB    $00               ; NUL
         FCB    $03               ; ETX
         FCB    ESC,W.FColor,$06         ; Foreground Color palette[6]
         FCB    $00               ; NUL
         FCB    $03               ; ETX
         FCB    ESC,W.FColor,$07         ; Foreground Color palette[7]

Dat_03A4
; Referenced by: $0C9C
         FCB    $00               ; NUL
         FCB    $03               ; ETX
         FCB    ESC,W.Bcolor,$00         ; Background Color palette[0]
         FCB    $00               ; NUL
         FCB    $03               ; ETX
         FCB    ESC,W.Bcolor,$01         ; Background Color palette[1]
         FCB    $00               ; NUL
         FCB    $03               ; ETX
         FCB    ESC,W.Bcolor,$02         ; Background Color palette[2]
         FCB    $00               ; NUL
         FCB    $03               ; ETX
         FCB    ESC,W.Bcolor,$03         ; Background Color palette[3]
         FCB    $00               ; NUL
         FCB    $03               ; ETX
         FCB    ESC,W.Bcolor,$04         ; Background Color palette[4]
         FCB    $00               ; NUL
         FCB    $03               ; ETX
         FCB    ESC,W.Bcolor,$05         ; Background Color palette[5]
         FCB    $00               ; NUL
         FCB    $03               ; ETX
         FCB    ESC,W.Bcolor,$06         ; Background Color palette[6]
         FCB    $00               ; NUL
         FCB    $03               ; ETX
         FCB    ESC,W.Bcolor,$07         ; Background Color palette[7]

Dat_03CC
; Referenced by: $097C, $09C1, Loc_0D83, $2D2C, Loc_2D97
         FCB    $00               ; NUL
         FCB    $01               ; SOH
         FCB    $0C               ; FF clear+home

Dat_03CF
; Referenced by: $0D90
         FCB    $00               ; NUL
         FCB    $01               ; SOH
         FCB    $04               ; EOT

Dat_03D2
; Referenced by: $0D7A
         FCB    $00               ; NUL
         FCB    $01               ; SOH
         FCB    $0B               ; VT cursor-up
         FCC    "pmam"

Dat_03D9
; Referenced by: Sub_1416, $1EDC
         FCB    $2F               ; '/'
         FCB    $D7
         FCB    $00               ; NUL
         FCB    $24               ; '$'
         FCB    CurXY,$30,$30     ; CurXY(row=16,col=16)
         FCC    "Enter number or <ENTER> to abort "
         FCB    CurXY,$20,$22     ; CurXY(row=0,col=2)

Dat_0404
; Referenced by: $0EFB, $13C9, Sub_1EA9
         FCB    ESC,W.DWEnd      ; Device Window End
         FCB    ESC,W.DWSet,$02,$00,$01,$50,$17,$07,$02,$02   ; Device Window Set

Dat_0410
; Referenced by: $140C, $1F3F
         FCB    ESC,W.DWEnd      ; Device Window End

Dat_0412
; Referenced by: $1422
         FCB    ESC,W.DWSet,$00,$00,$00,$50,$01,$03,$04,$0C   ; Device Window Set

Dat_041C
; Referenced by: Sub_234D, $239B
         FCB    ESC,W.FColor,$00         ; Foreground Color palette[0]
         FCB    ESC,W.Bcolor,$00         ; Background Color palette[0]
         FCB    $0C               ; FF clear+home
         FCB    $00               ; NUL
         FCB    $01               ; SOH
         FCB    $20               ; ' '

Dat_0426
; Referenced by: $09AB, $0DDF, $0DF5, $1472, $1771, $1884, $19E4, $1B96, $21A0, $25C2, $2673, Loc_27C6, Loc_2D25, $2FE1, $346D, $356B, $3663
         FCB    $00               ; NUL
         FCB    CurXY,$05,$21     ; CurXY(row=-27,col=1)

Dat_042A
; Referenced by: $0983, $0DB1, $1466, $16F3, $1808, $18AA, $1B84, $208E, Loc_21BF, $25B1, $265D, $271D, $2D07, $2D55, $2E01, $2FCF, $31EF, $342E, $3559
         FCB    $00               ; NUL
         FCB    CurXY,$05,$20     ; CurXY(row=-27,col=0)

Dat_042E
; Referenced by: $204F
         FCB    $1F               ; $1F
         FCC    "  "
         FCB    $1F               ; $1F
         FCB    $21               ; '!'
         FCB    $08               ; BS

Dat_0434
; Referenced by: $145F
         FCB    $00               ; NUL
         FCB    $17               ; ETB delete-line
         FCB    $0D               ; CR
         FCB    $0A               ; LF
         FCC    " Are you sure? (Y/N*)"

Dat_044D
; Referenced by: $2AB2
         FCB    $00               ; NUL
         FCB    $17               ; ETB delete-line
         FCB    CurXY,$2E,$23     ; CurXY(row=14,col=3)
         FCC    "Count  "
         FCB    CurXY,$2E,$25     ; CurXY(row=14,col=5)
         FCC    "Seconds "
         FCB    $05               ; $05
         FCB    $20               ; ' '

Dat_0466
; Referenced by: $2ABC
         FCB    $00               ; NUL
         FCB    $08               ; BS
         FCC    "Dialing "
         FCB    $00               ; NUL
         FCB    CurXY,$05,$21     ; CurXY(row=-27,col=1)
         FCB    $00               ; NUL
         FCB    $03               ; ETX
         FCB    CurXY,$2A,$21     ; CurXY(row=10,col=1)

Dat_0479
; Referenced by: $2AC6, $2B7F
         FCB    $00               ; NUL
         FCB    $03               ; ETX
         FCB    CurXY,$37,$23     ; CurXY(row=23,col=3)

Dat_047E
; Referenced by: $2B67
         FCB    $00               ; NUL
         FCB    $03               ; ETX
         FCB    CurXY,$37,$25     ; CurXY(row=23,col=5)

Dat_0483
; Referenced by: $3435
         FCB    $00               ; NUL
         FCC    "      ASCII  file transfer system"

Dat_04A5
; Referenced by: Loc_2CBB, $2D33, $2D9E
         FCB    $00               ; NUL
         FCC    "      Xmodem file transfer system"

Dat_04C7
; Referenced by: $2CF2, $2D3F, $2DAA
         FCB    $00               ; NUL
         FCB    $09               ; HT
         FCB    CurXY,$20,$20     ; CurXY(row=0,col=0)
         FCC    "     Y"

Dat_04D2
; Referenced by: Loc_2CF9, $343C
         FCB    $00               ; NUL
         FCB    $18               ; CAN erase-BOL
         FCB    CurXY,$26,$22     ; CurXY(row=6,col=2)
         FCC    " <S>end or <R>eceive?"

Dat_04EC
; Referenced by: $1B25, $2D00, Loc_2D46, $3443, $3466
         FCB    $00               ; NUL
         FCB    $11               ; DC1/XON
         FCB    CurXY,$2B,$26     ; CurXY(row=11,col=6)
         FCC    "<Break> aborts"

Dat_04FF
; Referenced by: $2E30, $3238
         FCB    $00               ; NUL
         FCB    $11               ; DC1/XON
         FCB    CurXY,$2A,$26     ; CurXY(row=10,col=6)
         FCC    "<Break> aborts"

Dat_0512
; Referenced by: Loc_2D5F
         FCB    $00               ; NUL
         FCB    $1B               ; ESC windowing cmd
         FCB    CurXY,$25,$22     ; CurXY(row=5,col=2)
         FCC    "ASCII Processing? (Y/N) "
         FCB    $00               ; NUL
         FCB    $14               ; DC4 erase-EOL
         FCB    CurXY,$29,$22     ; CurXY(row=9,col=2)
         FCC    "Transfer complete"
         FCB    $00               ; NUL
         FCB    $13               ; DC3/XOFF
         FCB    CurXY,$29,$22     ; CurXY(row=9,col=2)
         FCC    "Transfer aborted"

Dat_055A
; Referenced by: $21CF, $2D84, $34CF, $366A
         FCB    $00               ; NUL
         FCB    $0A               ; LF
         FCB    CurXY,$21,$24     ; CurXY(row=1,col=4)
         FCC    "File: "
         FCB    $04               ; EOT

Dat_0566
; Referenced by: $207B, $2DEE
         FCB    $00               ; NUL
         FCB    $0A               ; LF
         FCB    CurXY,$21,$22     ; CurXY(row=1,col=2)
         FCC    "Recv: "
         FCB    $04               ; EOT

Dat_0572
; Referenced by: Loc_31DC
         FCB    $00               ; NUL
         FCB    $0A               ; LF
         FCB    CurXY,$21,$22     ; CurXY(row=1,col=2)
         FCC    "Send: "
         FCB    $04               ; EOT

Dat_057E
; Referenced by: $2E29, Loc_3231
         FCB    $00               ; NUL
         FCB    $22               ; '"'
         FCB    CurXY,$21,$24     ; CurXY(row=1,col=4)
         FCC    "Block #                 Error #"

Dat_05A2
; Referenced by: $160E
         FCB    $00               ; NUL
         FCB    $03               ; ETX
         FCB    CurXY,$28,$24     ; CurXY(row=8,col=4)

Dat_05A7
; Referenced by: $15FC
         FCB    $00               ; NUL
         FCB    $03               ; ETX
         FCB    CurXY,$40,$24     ; CurXY(row=32,col=4)

Dat_05AC
; Referenced by: $170B
         FCB    $00               ; NUL
         FCB    $13               ; DC3/XOFF
         FCB    $0A               ; LF
         FCB    $0D               ; CR
         FCC    " Baud Rate:      "

Dat_05C1
; Referenced by: $1729, $24D3
         FCC    "110  300  600  1200 2400 4800 9600 19200"
         FCB    $00               ; NUL
         FCB    $06               ; $06
         FCB    ESC,W.CWArea,$01,$02,$04,$09  ; CPX=1 CPY=2 SZX=4 SZY=9

Dat_05F1
; Referenced by: $27E2
         FCB    BS,BS,BS  ; BS×3
         FCC    "   "

Dat_05F7
; Referenced by: $17A8
         FCB    $0C               ; FF clear+home
         FCB    LF,LF,LF,LF,LF,LF  ; LF×6
         FCB    LF,LF,LF,LF  ; LF×4

Dat_0602
; Referenced by: $17B1, $2765
         FCC    "==>"
         FCB    $00               ; NUL
         FCB    $06               ; $06
         FCB    ESC,W.CWArea,$01,$02,$04,$04  ; CPX=1 CPY=2 SZX=4 SZY=4

Dat_060D
; Referenced by: $1820
         FCB    $00               ; NUL
         FCB    $18               ; CAN erase-BOL
         FCB    $0A               ; LF
         FCB    $0D               ; CR
         FCC    " Terminal Type :      "

Dat_0627
; Referenced by: $183C
         FCC    "OS9  ASCIIANSI "

Dat_0636
; Referenced by: $2DC3
         FCB    $00               ; NUL
         FCB    $0E               ; SO cursor-right
         FCB    CurXY,$30,$21     ; CurXY(row=16,col=1)
         FCB    ESC,W.FColor,$06         ; Foreground Color palette[6]
         FCC    "ASCII"
         FCB    ESC,W.FColor,$07         ; Foreground Color palette[7]

Dat_0646
; Referenced by: $28AD
         FCS    "ADS"
         FCS    "BPS"
         FCS    "ECH"
         FCS    "HEK"
         FCS    "TRM"
         FCS    "LNF"
         FCS    "XON"
         FCS    "XOF"
         FCS    "RTR"
         FCS    "RPS"
         FCS    "PAR"
         FCS    "CLK"
         FCS    "WRD"
         FCS    "STP"
         FCS    "KM1"
         FCS    "KM2"
         FCS    "KM3"
         FCS    "KM4"
         FCS    "KM5"
         FCS    "KM6"
         FCS    "KM7"
         FCS    "KM8"
         FCS    "CNS"
         FCS    "SS1"
         FCS    "SS2"
         FCS    "SS3"
         FCS    "SS4"
         FCS    "RS1"
         FCS    "RS2"
         FCS    "RS3"
         FCS    "RS4"

Dat_06A3
; Referenced by: $18C2
         FCB    $00               ; NUL
         FCC    "e  SuperComm Options"
         FCB    ESC,W.CWArea,$05,$02,$0D,$08  ; CPX=5 CPY=2 SZX=13 SZY=8
         FCC    "Echo"
         FDB    $0D0A             ; CRLF
         FCC    "Line Feeds"
         FDB    $0D0A             ; CRLF
         FCC    "Click"
         FDB    $0D0A             ; CRLF
         FCC    "Word Length"
         FDB    $0D0A             ; CRLF
         FCC    "Parity"
         FDB    $0D0A             ; CRLF
         FCC    "Stop Bits"
         FDB    $0D0A             ; CRLF
         FCC    "Echo (host)"
         FDB    $0D0A             ; CRLF
         FCB    ESC,W.CWArea,$00,$00,$15,$0A  ; CPX=0 CPY=0 SZX=21 SZY=10

Dat_070A
; Referenced by: $25B8
         FCB    $00               ; NUL
         FCB    $17               ; ETB delete-line
         FCB    $0D               ; CR
         FCB    $0A               ; LF
         FCC    " Saving  SuperComm..."

Dat_0723
; Referenced by: Loc_345F
         FCB    $00               ; NUL
         FCB    $17               ; ETB delete-line
         FCB    $0C               ; FF clear+home
         FCB    CurXY,$29,$20     ; CurXY(row=9,col=0)
         FCC    "File Capture System"

Dat_073C
; Referenced by: $348F
         FCB    $00               ; NUL
         FCC    "&""
         FCB    CurXY,$21,$24     ; CurXY(row=1,col=4)
         FCC    "is already open.  Close it? (Y/N) "

Dat_0764
; Referenced by: Loc_365C
         FCB    $00               ; NUL
         FCB    $13               ; DC3/XOFF
         FCB    CurXY,$2B,$22     ; CurXY(row=11,col=2)
         FCB    $03               ; ETX
         FCC    "Send ASCII file"

Dat_0779
; Referenced by: $3479
         FCB    $00               ; NUL
         FCB    $04               ; EOT
         FCB    CurXY,$21,$22     ; CurXY(row=1,col=2)
         FCB    $22               ; '"'

Dat_077F
; Referenced by: $3512
         FCB    $00               ; NUL
         FCB    $33               ; '3'
         FCB    CurXY,$29,$20     ; CurXY(row=9,col=0)
         FCC    "File already exists!"
         FCB    CurXY,$26,$22     ; CurXY(row=6,col=2)
         FCC    "<A>ppend or <O>verwrite? "

Dat_07B4
; Referenced by: Loc_1C0E
         FCB    $00               ; NUL
         FCB    $0B               ; VT cursor-up
         FCB    CurXY,$6E,$20     ; CurXY(row=78,col=0)
         FCB    $1F               ; $1F
         FCB    $24               ; '$'
         FCB    ESC,W.FColor,$03         ; Foreground Color palette[3]
         FCB    $42               ; 'B'
         FCB    $1F               ; $1F
         FCB    $25               ; '%'

Dat_07C1
; Referenced by: $1BEB
         FCB    $00               ; NUL
         FCB    $0A               ; LF
         FCB    CurXY,$6E,$20     ; CurXY(row=78,col=0)
         FCB    ESC,W.FColor,$00         ; Foreground Color palette[0]
         FCB    $42               ; 'B'
         FCB    ESC,W.FColor,$03         ; Foreground Color palette[3]

Dat_07CD
; Referenced by: Loc_19FB
         FCB    $00               ; NUL
         FCB    $04               ; EOT
         FCC    "Off"
         FCB    $04               ; EOT

Dat_07D3
; Referenced by: Loc_1A04
         FCB    $00               ; NUL
         FCB    $03               ; ETX
         FCC    "On"
         FCB    $04               ; EOT

Dat_07D8
; Referenced by: $1A4C
         FCC    "Mark "

Dat_07DD
; Referenced by: $1A56
         FCC    "Space"

Dat_07E2
; Referenced by: $1A60
         FCC    "Even "

Dat_07E7
; Referenced by: $1A6A
         FCC    "Odd  "

Dat_07EC
; Referenced by: Loc_1A70
         FCC    "None "

Dat_07F1
; Referenced by: $1B41
         FCB    $00               ; NUL
         FCB    $36               ; '6'
         FCB    CurXY,$28,$20     ; CurXY(row=8,col=0)
         FCC    "Change Data Directory"
         FCB    CurXY,$29,$25     ; CurXY(row=9,col=5)
         FCC    "(use full pathname)"
         FCB    CurXY,$21,$24     ; CurXY(row=1,col=4)
         FCC    "Path:"

Dat_0829
; Referenced by: $1F77
         FCB    CurXY,$20,$20     ; CurXY(row=0,col=0)
         FCC    "    "

Dat_0830
; Referenced by: $1F2C, $237A
         FCB    CurXY,$20,$20     ; CurXY(row=0,col=0)
         FCC    "Conf"

Dat_0837
; Referenced by: $1F1E
         FCB    ESC,W.CWArea,$00,$01,$50,$02  ; CPX=0 CPY=1 SZX=80 SZY=2

Dat_083D
; Referenced by: $20EF, $23E9
         FCB    $00               ; NUL
         FCB    $0F               ; SI cursor-left
         FCC    "B@"
         FCB    $00               ; NUL
         FCB    $01               ; SOH
         FCB    $86
         FCB    $A0
         FCB    $00               ; NUL
         FCB    $00               ; NUL
         FCB    $27               ; '''
         FCB    $10               ; $10
         FCB    $00               ; NUL
         FCB    $00               ; NUL
         FCB    $03               ; ETX
         FCB    $E8
         FCB    NUL,NUL,NUL  ; NUL×3
         FCB    $64               ; 'd'
         FCB    NUL,NUL,NUL  ; NUL×3
         FCB    $0A               ; LF
         FCB    NUL,NUL,NUL  ; NUL×3
         FCB    $01               ; SOH
         FCB    NUL,NUL,NUL,NUL  ; NUL×4

Dat_085D
         FCB    $20               ; ' '

Dat_085E
; Referenced by: $0DC7
         FCC    "ABCDEFHMOQRSTUWXYZabcdefhmoqrstuwxyz"

Dat_0882
; Referenced by: $094F, $2593
         FCB    $04               ; EOT
         FCB    $01               ; SOH
         FCB    $00               ; NUL
         FCB    $00               ; NUL
         FCB    $01               ; SOH
         FCB    NUL,NUL,NUL  ; NUL×3

Dat_088A
         FCB    $11               ; DC1/XON

Dat_088B
         FCB    $13               ; DC3/XOFF
         FCB    $00               ; NUL

Dat_088D
; Referenced by: $25F3, $283A
         FCS    "/dd/sys/dial"
         FCC    "                    "

Dat_08AD
; Referenced by: $095E
         FCC    "/dd/com/comfiles"
         FCB    $0D               ; CR
         FCB    NUL,NUL,NUL,NUL,NUL,NUL  ; NUL×6
         FCB    NUL,NUL,NUL,NUL,NUL,NUL  ; NUL×6
         FCB    NUL,NUL,NUL  ; NUL×3

; ==============================================================
; Code section  $08CD—$3754  (11912 bytes)
; ==============================================================

$08CD  AF 42               Init:          STX 2,U               
$08CF  30 88 C0                           LEAX -64,X            
$08D2  AF 44                              STX 4,U               
$08D4  32 7F                              LEAS -1,S             
$08D6  30 C9 19 D5                        LEAX 6613,U           
$08DA  AF 46                              STX 6,U               
$08DC  AF 48                              STX 8,U               
$08DE  30 C8 13                           LEAX 19,U             
$08E1  6F 80               Loc_08E1:      CLR ,X+               
$08E3  AC 44                              CMPX 4,U              
$08E5  25 FA                              BCS Loc_08E1           ; C=1 (BLO)
$08E7  AE 42                              LDX 2,U               
$08E9  86 20                              LDA #$20               ; A = ' '
$08EB  A7 1F                              STA -1,X              
$08ED  A6 80               Loc_08ED:      LDA ,X+               
$08EF  81 0D                              CMPA #$0D              ; compare A with CR
$08F1  27 0E                              BEQ Loc_0901          
$08F3  81 2F                              CMPA #$2F              ; compare A with '/'
$08F5  26 F6                              BNE Loc_08ED          
$08F7  A6 1E                              LDA -2,X              
$08F9  81 20                              CMPA #$20              ; compare A with ' '
$08FB  26 F0                              BNE Loc_08ED          
$08FD  30 1F                              LEAX -1,X             
$08FF  20 04                              BRA Loc_0905          

; --------------------------------------------------------------
$0901  30 8D F9 BF         Loc_0901:      LEAX Dat_02C4,PC       ; X → Dat_02C4
$0905  31 C8 35            Loc_0905:      LEAY 53,U             
$0908  C6 0A                              LDB #$0A               ; B = SS.DevNm  (GetStt/SetStt subcode)
$090A  A6 80               Loc_090A:      LDA ,X+               
$090C  81 0D                              CMPA #$0D              ; compare A with CR
$090E  27 05                              BEQ Loc_0915          
$0910  A7 A0                              STA ,Y+               
$0912  5A                                 DECB                  
$0913  26 F5                              BNE Loc_090A          
$0915  A7 A0               Loc_0915:      STA ,Y+               
$0917  17 05 80                           LBSR Sub_0E9A          ; call Sub_0E9A
$091A  10 25 03 B4                        LBCS Loc_0CD2         
$091E  17 0A 92                           LBSR Sub_13B3          ; call Sub_13B3
$0921  10 25 03 AD                        LBCS Loc_0CD2         
$0925  86 01                              LDA #$01              
$0927  A7 C8 6D                           STA 109,U             
$092A  8E 00 01                           LDX #$0001            
$092D  10 3F 0A                           OS9 F$Sleep            ; ticks→X  (0=forever)
$0930  86 01                              LDA #$01              
$0932  C6 92                              LDB #$92              
$0934  10 3F 8D                           OS9 I$GetStt           ; path=A  subcode=B  buf→X
$0937  25 2C                              BCS Loc_0965           ; C=1 (BLO)
$0939  1F 10                              TFR X,D               
$093B  E7 C9 0E 4C                        STB 3660,U            
$093F  AA C9 0E 4C                        ORA 3660,U            
$0943  A7 C8 6D                           STA 109,U             
$0946  6F C8 2D                           CLR 45,U              
$0949  6F C8 2B                           CLR 43,U              
$094C  6F C8 2E                           CLR 46,U              
$094F  30 8D FF 2F                        LEAX Dat_0882,PC       ; X → Dat_0882
$0953  31 C9 0E 6D                        LEAY 3693,U           
$0957  C6 4B                              LDB #$4B               ; B = 'K'
$0959  17 1A F9                           LBSR Sub_2455          ; call Sub_2455
$095C  86 03                              LDA #$03              
$095E  30 8D FF 4B                        LEAX Dat_08AD,PC       ; X → Dat_08AD
$0962  10 3F 86                           OS9 I$ChgDir           ; mode=B  name→X
$0965  17 0B 8F            Loc_0965:      LBSR Sub_14F7          ; call Sub_14F7
$0968  17 0B FD                           LBSR Sub_1568          ; call Sub_1568
$096B  17 0B 71                           LBSR Sub_14DF          ; call Sub_14DF
$096E  30 8D 03 63                        LEAX Dat_0CD5,PC       ; X → Dat_0CD5
$0972  10 3F 09                           OS9 F$Icpt             ; handler→X  data→U
$0975  30 C9 08 D7                        LEAX 2263,U           
$0979  AF C8 6E                           STX 110,U             
$097C  30 8D FA 4C                        LEAX Dat_03CC,PC       ; X → Dat_03CC
$0980  17 0A AE                           LBSR Sub_1431          ; call Sub_1431
$0983  30 8D FA A3                        LEAX Dat_042A,PC       ; X → Dat_042A
$0987  17 0A A7                           LBSR Sub_1431          ; call Sub_1431
$098A  CC 1B 04                           LDD #$1B04             ; D=ESC+$04
$098D  ED C9 0E 57                        STD 3671,U            
$0991  CC 1A 05                           LDD #$1A05            
$0994  ED C9 0E 59                        STD 3673,U            
$0998  17 0B F0                           LBSR Sub_158B          ; call Sub_158B
$099B  30 8D F6 A4                        LEAX Dat_0043,PC       ; X → Dat_0043
$099F  17 0A 8F                           LBSR Sub_1431          ; call Sub_1431
$09A2  17 0A 71                           LBSR Sub_1416          ; call Sub_1416
$09A5  17 18 75                           LBSR Sub_221D          ; call Sub_221D
$09A8  17 0C 36                           LBSR Sub_15E1          ; call Sub_15E1
$09AB  30 8D FA 77                        LEAX Dat_0426,PC       ; X → Dat_0426
$09AF  17 0A 7F                           LBSR Sub_1431          ; call Sub_1431
$09B2  86 03                              LDA #$03              
$09B4  30 C8 35                           LEAX 53,U             
$09B7  10 3F 84                           OS9 I$Open             ; mode=B  name→X  → path→A
$09BA  10 25 03 14                        LBCS Loc_0CD2         
$09BE  A7 C8 33                           STA 51,U              
$09C1  30 8D FA 07                        LEAX Dat_03CC,PC       ; X → Dat_03CC
$09C5  17 0A 69                           LBSR Sub_1431          ; call Sub_1431
$09C8  17 19 82                           LBSR Sub_234D          ; call Sub_234D
$09CB  17 2C 45                           LBSR Sub_3613          ; call Sub_3613
$09CE  6F C9 15 BD                        CLR 5565,U            
$09D2  CC 01 03                           LDD #$0103            
$09D5  ED C9 0E 5C                        STD 3676,U            
$09D9  17 04 23                           LBSR Sub_0DFF          ; call Sub_0DFF
$09DC  17 18 6F                           LBSR Sub_224E          ; call Sub_224E
$09DF  6F C9 15 BE                        CLR 5566,U            
$09E3  6F C9 15 BF                        CLR 5567,U            
$09E7  6F C9 15 C2                        CLR 5570,U            
$09EB  6F C9 15 C0                        CLR 5568,U            
$09EF  6F C9 15 C1                        CLR 5569,U            
$09F3  6F C9 15 BC                        CLR 5564,U            
$09F7  17 04 53                           LBSR Sub_0E4D          ; call Sub_0E4D
$09FA  6F C9 15 C5                        CLR 5573,U            
$09FE  86 00                              LDA #$00               ; A = NUL
$0A00  30 C9 09 D6                        LEAX 2518,U           
$0A04  10 8E 00 01                        LDY #$0001            
$0A08  10 3F 89                           OS9 I$Read             ; path=A  count=Y  buf→X
$0A0B  6F C9 0E 52                        CLR 3666,U            
$0A0F  16 07 5D                           LBRA Loc_116F         

; --------------------------------------------------------------
$0A12  17 05 43            Loc_0A12:      LBSR Sub_0F58          ; call Sub_0F58
$0A15  10 24 02 C6                        LBCC Loc_0CDF         
$0A19  6D C8 2B                           TST 43,U              
$0A1C  10 26 2C A8                        LBNE Loc_36C8         
$0A20  8E 00 03                           LDX #$0003            
$0A23  10 3F 0A                           OS9 F$Sleep            ; ticks→X  (0=forever)
$0A26  17 05 2B            Loc_0A26:      LBSR Sub_0F54          ; call Sub_0F54
$0A29  10 25 00 0A                        LBCS Loc_0A37         
$0A2C  0A 6D               Loc_0A2C:      DEC <$6D              
$0A2E  C8 48                              EORB #$48             
$0A30  10 26 15 53                        LBNE Loc_1F87         
$0A34  16 07 21                           LBRA Loc_1158         

; --------------------------------------------------------------
$0A37  17 05 27            Loc_0A37:      LBSR Sub_0F61          ; call Sub_0F61
$0A3A  6D C8 30            Loc_0A3A:      TST 48,U              
$0A3D  10 26 06 E5                        LBNE Loc_1126         
$0A41  16 FF CE                           LBRA Loc_0A12         

; --------------------------------------------------------------
$0A44  30 C9 00 B7         Loc_0A44:      LEAX 183,U            
$0A48  31 C9 0A D5                        LEAY 2773,U           
$0A4C  E6 C9 0E 51                        LDB 3665,U            
$0A50  A6 80               Loc_0A50:      LDA ,X+               
$0A52  84 7F                              ANDA #$7F             
$0A54  81 20                              CMPA #$20              ; compare A with ' '
$0A56  25 0D                              BCS Loc_0A65           ; C=1 (BLO)
$0A58  81 7F                              CMPA #$7F             
$0A5A  22 09                              BHI Loc_0A65          
$0A5C  17 05 34                           LBSR Sub_0F93          ; call Sub_0F93
$0A5F  A7 A0               Loc_0A5F:      STA ,Y+               
$0A61  5A                  Loc_0A61:      DECB                  
$0A62  26 EC                              BNE Loc_0A50          
$0A64  39                                 RTS                   

; --------------------------------------------------------------
$0A65  81 08               Loc_0A65:      CMPA #$08              ; compare A with BS
$0A67  26 05                              BNE Loc_0A6E          
$0A69  17 05 42                           LBSR Sub_0FAE          ; call Sub_0FAE
$0A6C  20 F1                              BRA Loc_0A5F          

; --------------------------------------------------------------
$0A6E  81 0D               Loc_0A6E:      CMPA #$0D              ; compare A with CR
$0A70  26 16                              BNE Loc_0A88          
$0A72  17 05 51                           LBSR Sub_0FC6          ; call Sub_0FC6
$0A75  6D C9 0E 70                        TST 3696,U            
$0A79  27 E4                              BEQ Loc_0A5F          
$0A7B  17 05 51                           LBSR Sub_0FCF          ; call Sub_0FCF
$0A7E  6C C9 0E 51                        INC 3665,U            
$0A82  A7 A0                              STA ,Y+               
$0A84  86 0A                              LDA #$0A               ; A = LF
$0A86  20 D7                              BRA Loc_0A5F          

; --------------------------------------------------------------
$0A88  81 0C               Loc_0A88:      CMPA #$0C              ; compare A with FF
$0A8A  26 05                              BNE Loc_0A91          
$0A8C  17 05 53                           LBSR Sub_0FE2          ; call Sub_0FE2
$0A8F  20 CE                              BRA Loc_0A5F          

; --------------------------------------------------------------
$0A91  81 07               Loc_0A91:      CMPA #$07             
$0A93  27 CA                              BEQ Loc_0A5F          
$0A95  81 0A                              CMPA #$0A              ; compare A with LF
$0A97  26 05                              BNE Loc_0A9E          
$0A99  17 05 33                           LBSR Sub_0FCF          ; call Sub_0FCF
$0A9C  20 C1                              BRA Loc_0A5F          

; --------------------------------------------------------------
$0A9E  81 09               Loc_0A9E:      CMPA #$09             
$0AA0  26 05                              BNE Loc_0AA7          
$0AA2  17 0A 51                           LBSR Sub_14F6          ; call Sub_14F6
$0AA5  20 BA                              BRA Loc_0A61          

; --------------------------------------------------------------
$0AA7  6A C9 0E 51         Loc_0AA7:      DEC 3665,U            
$0AAB  20 B4                              BRA Loc_0A61          

; --------------------------------------------------------------
$0AAD  30 C9 00 B7         Loc_0AAD:      LEAX 183,U            
$0AB1  31 C9 0A D5                        LEAY 2773,U           
$0AB5  E6 C9 0E 51                        LDB 3665,U            
$0AB9  6D C9 0E 52         Loc_0AB9:      TST 3666,U            
$0ABD  10 26 00 A1                        LBNE Loc_0B62         
$0AC1  A6 80                              LDA ,X+               
$0AC3  81 20                              CMPA #$20              ; compare A with ' '
$0AC5  25 0F                              BCS Loc_0AD6           ; C=1 (BLO)
$0AC7  81 80                              CMPA #$80             
$0AC9  25 02                              BCS Loc_0ACD           ; C=1 (BLO)
$0ACB  86 2A                              LDA #$2A               ; A = '*'
$0ACD  17 04 C3            Loc_0ACD:      LBSR Sub_0F93          ; call Sub_0F93
$0AD0  A7 A0               Loc_0AD0:      STA ,Y+               
$0AD2  5A                  Loc_0AD2:      DECB                  
$0AD3  26 E4                              BNE Loc_0AB9          
$0AD5  39                                 RTS                   

; --------------------------------------------------------------
$0AD6  81 08               Loc_0AD6:      CMPA #$08              ; compare A with BS
$0AD8  27 1A                              BEQ Loc_0AF4          
$0ADA  81 0D                              CMPA #$0D              ; compare A with CR
$0ADC  27 27                              BEQ Loc_0B05          
$0ADE  81 0A                              CMPA #$0A              ; compare A with LF
$0AE0  27 39                              BEQ Loc_0B1B          
$0AE2  81 0C                              CMPA #$0C              ; compare A with FF
$0AE4  27 3A                              BEQ Loc_0B20          
$0AE6  81 07                              CMPA #$07             
$0AE8  27 E3                              BEQ Loc_0ACD          
$0AEA  81 1B                              CMPA #$1B              ; compare A with ESC
$0AEC  27 37                              BEQ Loc_0B25          
$0AEE  6A C9 0E 51         Loc_0AEE:      DEC 3665,U            
$0AF2  20 DE                              BRA Loc_0AD2          

; --------------------------------------------------------------
$0AF4  34 02               Loc_0AF4:      PSHS A                
$0AF6  A6 C9 0E 5C                        LDA 3676,U            
$0AFA  81 01                              CMPA #$01             
$0AFC  35 02                              PULS A                
$0AFE  27 EE                              BEQ Loc_0AEE          
$0B00  17 04 AB                           LBSR Sub_0FAE          ; call Sub_0FAE
$0B03  20 CB                              BRA Loc_0AD0          

; --------------------------------------------------------------
$0B05  17 04 BE            Loc_0B05:      LBSR Sub_0FC6          ; call Sub_0FC6
$0B08  6D C9 0E 70                        TST 3696,U            
$0B0C  27 C2                              BEQ Loc_0AD0          
$0B0E  17 04 BE                           LBSR Sub_0FCF          ; call Sub_0FCF
$0B11  6C C9 0E 51                        INC 3665,U            
$0B15  A7 A0                              STA ,Y+               
$0B17  86 0A                              LDA #$0A               ; A = LF
$0B19  20 B5                              BRA Loc_0AD0          

; --------------------------------------------------------------
$0B1B  17 04 B1            Loc_0B1B:      LBSR Sub_0FCF          ; call Sub_0FCF
$0B1E  20 B0                              BRA Loc_0AD0          

; --------------------------------------------------------------
$0B20  17 04 BF            Loc_0B20:      LBSR Sub_0FE2          ; call Sub_0FE2
$0B23  20 AB                              BRA Loc_0AD0          

; --------------------------------------------------------------
$0B25  6C C9 0E 52         Loc_0B25:      INC 3666,U            
$0B29  6F C9 0E 53                        CLR 3667,U            
$0B2D  86 FF                              LDA #$FF              
$0B2F  A7 C9 0E 28                        STA 3624,U            
$0B33  34 20                              PSHS Y                
$0B35  31 C9 0E 28                        LEAY 3624,U           
$0B39  10 AF C9 0E 48                     STY 3656,U            
$0B3E  6F C9 0E 28                        CLR 3624,U            
$0B42  6F C9 0E 29                        CLR 3625,U            
$0B46  A7 C9 0E 2A                        STA 3626,U            
$0B4A  35 20                              PULS Y                
$0B4C  8D 07                              BSR Sub_0B55           ; call Sub_0B55
$0B4E  6A C9 0E 51                        DEC 3665,U            
$0B52  16 FF 7D                           LBRA Loc_0AD2         

; --------------------------------------------------------------
$0B55  34 20               Sub_0B55:      PSHS Y                
$0B57  31 C9 0C D5                        LEAY 3285,U           
$0B5B  10 AF C9 0E 55                     STY 3669,U            
$0B60  35 A0                              PULS Y,PC              ; return from subroutine  (PULS PC = RTS)

; --------------------------------------------------------------
$0B62  34 20               Loc_0B62:      PSHS Y                
$0B64  10 AE C9 0E 55                     LDY 3669,U            
$0B69  A6 80                              LDA ,X+               
$0B6B  A7 A0                              STA ,Y+               
$0B6D  10 AF C9 0E 55                     STY 3669,U            
$0B72  35 20                              PULS Y                
$0B74  81 5B                              CMPA #$5B              ; compare A with '['
$0B76  27 04                              BEQ Loc_0B7C          
$0B78  81 40                              CMPA #$40              ; compare A with '@'
$0B7A  22 07                              BHI Loc_0B83          
$0B7C  6A C9 0E 51         Loc_0B7C:      DEC 3665,U            
$0B80  16 FF 4F                           LBRA Loc_0AD2         

; --------------------------------------------------------------
$0B83  6F C9 0E 52         Loc_0B83:      CLR 3666,U            
$0B87  A7 C9 0E 54                        STA 3668,U            
$0B8B  6A C9 0E 51                        DEC 3665,U            
$0B8F  8D C4                              BSR Sub_0B55           ; call Sub_0B55
$0B91  34 24                              PSHS B,Y              
$0B93  10 AE C9 0E 48                     LDY 3656,U            
$0B98  86 FF                              LDA #$FF              
$0B9A  A7 A4                              STA ,Y                
$0B9C  31 C9 0E 28                        LEAY 3624,U           
$0BA0  10 AF C9 0E 48                     STY 3656,U            
$0BA5  10 AE C9 0E 55                     LDY 3669,U            
$0BAA  31 21                              LEAY 1,Y              
$0BAC  10 AF C9 0E 55                     STY 3669,U            
$0BB1  A6 A0               Loc_0BB1:      LDA ,Y+               
$0BB3  81 40                              CMPA #$40              ; compare A with '@'
$0BB5  22 47                              BHI Loc_0BFE          
$0BB7  81 3A                              CMPA #$3A              ; compare A with ':'
$0BB9  25 04                              BCS Loc_0BBF           ; C=1 (BLO)
$0BBB  C6 FE                              LDB #$FE              
$0BBD  20 1D                              BRA Loc_0BDC          

; --------------------------------------------------------------
$0BBF  80 30               Loc_0BBF:      SUBA #$30             
$0BC1  A7 C9 0E 4C                        STA 3660,U            
$0BC5  A6 A0                              LDA ,Y+               
$0BC7  81 39                              CMPA #$39              ; compare A with '9'
$0BC9  22 2B                              BHI Loc_0BF6          
$0BCB  80 30                              SUBA #$30             
$0BCD  A7 C9 0E 4D                        STA 3661,U            
$0BD1  A6 C9 0E 4C                        LDA 3660,U            
$0BD5  C6 0A                              LDB #$0A               ; B = SS.DevNm  (GetStt/SetStt subcode)
$0BD7  3D                                 MUL                    ; D = A×B unsigned
$0BD8  EB 3F                              ADDB -1,Y             
$0BDA  C0 30                              SUBB #$30             
$0BDC  34 20               Loc_0BDC:      PSHS Y                
$0BDE  10 AE C9 0E 48                     LDY 3656,U            
$0BE3  E7 A0                              STB ,Y+               
$0BE5  C6 FF                              LDB #$FF              
$0BE7  E7 A4                              STB ,Y                
$0BE9  E7 21                              STB 1,Y               
$0BEB  E7 22                              STB 2,Y               
$0BED  10 AF C9 0E 48                     STY 3656,U            
$0BF2  35 20                              PULS Y                
$0BF4  20 BB                              BRA Loc_0BB1          

; --------------------------------------------------------------
$0BF6  31 3F               Loc_0BF6:      LEAY -1,Y             
$0BF8  E6 C9 0E 4C                        LDB 3660,U            
$0BFC  20 DE                              BRA Loc_0BDC          

; --------------------------------------------------------------
$0BFE  35 24               Loc_0BFE:      PULS B,Y              
$0C00  A6 C9 0E 54                        LDA 3668,U            
$0C04  81 6D                              CMPA #$6D              ; compare A with 'm'
$0C06  10 27 00 3F                        LBEQ Loc_0C49         
$0C0A  81 4A                              CMPA #$4A              ; compare A with 'J'
$0C0C  10 27 01 5E                        LBEQ Loc_0D6E         
$0C10  81 66                              CMPA #$66              ; compare A with 'f'
$0C12  10 27 04 11                        LBEQ Loc_1027         
$0C16  81 48                              CMPA #$48              ; compare A with 'H'
$0C18  10 27 04 0B                        LBEQ Loc_1027         
$0C1C  81 43                              CMPA #$43              ; compare A with 'C'
$0C1E  10 27 04 4C                        LBEQ Loc_106E         
$0C22  81 44                              CMPA #$44              ; compare A with 'D'
$0C24  10 27 04 87                        LBEQ Loc_10AF         
$0C28  81 41                              CMPA #$41              ; compare A with 'A'
$0C2A  10 27 04 AA                        LBEQ Loc_10D8         
$0C2E  81 42                              CMPA #$42              ; compare A with 'B'
$0C30  10 27 04 CD                        LBEQ Loc_1101         
$0C34  81 73                              CMPA #$73              ; compare A with 's'
$0C36  10 27 03 B9                        LBEQ Loc_0FF3         
$0C3A  81 75                              CMPA #$75              ; compare A with 'u'
$0C3C  10 27 03 C2                        LBEQ Loc_1002         
$0C40  81 4B                              CMPA #$4B              ; compare A with 'K'
$0C42  10 27 01 48                        LBEQ Loc_0D8E         
$0C46  16 FE 89                           LBRA Loc_0AD2         

; --------------------------------------------------------------
$0C49  34 16               Loc_0C49:      PSHS A,B,X            
$0C4B  30 C9 0E 28                        LEAX 3624,U           
$0C4F  A6 80               Loc_0C4F:      LDA ,X+               
$0C51  81 FF                              CMPA #$FF             
$0C53  27 16                              BEQ Loc_0C6B          
$0C55  81 00                              CMPA #$00              ; compare A with NUL
$0C57  27 49                              BEQ Loc_0CA2          
$0C59  81 01                              CMPA #$01             
$0C5B  27 F2                              BEQ Loc_0C4F          
$0C5D  81 08                              CMPA #$08              ; compare A with BS
$0C5F  25 0F                              BCS Loc_0C70           ; C=1 (BLO)
$0C61  81 26                              CMPA #$26              ; compare A with '&'
$0C63  25 13                              BCS Loc_0C78           ; C=1 (BLO)
$0C65  81 30                              CMPA #$30              ; compare A with '0'
$0C67  25 24                              BCS Loc_0C8D           ; C=1 (BLO)
$0C69  20 E4                              BRA Loc_0C4F          

; --------------------------------------------------------------
$0C6B  35 16               Loc_0C6B:      PULS A,B,X            
$0C6D  16 FE 62                           LBRA Loc_0AD2         

; --------------------------------------------------------------
$0C70  34 10               Loc_0C70:      PSHS X                
$0C72  30 8D F6 DE                        LEAX Dat_0354,PC       ; X → Dat_0354
$0C76  20 30                              BRA Loc_0CA8          

; --------------------------------------------------------------
$0C78  E6 C8 6D            Loc_0C78:      LDB 109,U             
$0C7B  C1 02                              CMPB #$02             
$0C7D  27 D0                              BEQ Loc_0C4F          
$0C7F  81 1E                              CMPA #$1E             
$0C81  25 CC                              BCS Loc_0C4F           ; C=1 (BLO)
$0C83  80 1E                              SUBA #$1E             
$0C85  34 10                              PSHS X                
$0C87  30 8D F6 F1                        LEAX Dat_037C,PC       ; X → Dat_037C
$0C8B  20 1B                              BRA Loc_0CA8          

; --------------------------------------------------------------
$0C8D  E6 C8 6D            Loc_0C8D:      LDB 109,U             
$0C90  C1 02                              CMPB #$02             
$0C92  27 BB                              BEQ Loc_0C4F          
$0C94  81 28                              CMPA #$28              ; compare A with '('
$0C96  25 B7                              BCS Loc_0C4F           ; C=1 (BLO)
$0C98  80 28                              SUBA #$28             
$0C9A  34 10                              PSHS X                
$0C9C  30 8D F7 04                        LEAX Dat_03A4,PC       ; X → Dat_03A4
$0CA0  20 06                              BRA Loc_0CA8          

; --------------------------------------------------------------
$0CA2  34 10               Loc_0CA2:      PSHS X                
$0CA4  30 8D F6 9C                        LEAX Dat_0344,PC       ; X → Dat_0344
$0CA8  C6 05               Loc_0CA8:      LDB #$05               ; B = SS.Pos  (GetStt/SetStt subcode)
$0CAA  3D                                 MUL                    ; D = A×B unsigned
$0CAB  30 85                              LEAX B,X              
$0CAD  17 00 AE                           LBSR Sub_0D5E          ; call Sub_0D5E
$0CB0  35 10                              PULS X                
$0CB2  20 9B                              BRA Loc_0C4F          

; --------------------------------------------------------------
$0CB4  A6 C8 46            Loc_0CB4:      LDA 70,U              
$0CB7  10 3F 8F                           OS9 I$Close            ; path=A
$0CBA  17 02 2D                           LBSR Sub_0EEA          ; call Sub_0EEA
$0CBD  17 02 39                           LBSR Sub_0EF9          ; call Sub_0EF9
$0CC0  17 02 83                           LBSR Sub_0F46          ; call Sub_0F46
$0CC3  6D C8 2D                           TST 45,U              
$0CC6  27 09                              BEQ Loc_0CD1          
$0CC8  17 29 13                           LBSR Sub_35DE          ; call Sub_35DE
$0CCB  A6 C8 32                           LDA 50,U              
$0CCE  10 3F 8F                           OS9 I$Close            ; path=A
$0CD1  5F                  Loc_0CD1:      CLRB                   ; B = 0
$0CD2  10 3F 06            Loc_0CD2:      OS9 F$Exit             ; status=B

Dat_0CD5
; Referenced by: $096E
; ── 9 ($0009) bytes  ($0CD5—$0CDD) ──
         FCB    $C1
         FCB    CurXY,$26,$05     ; CurXY(row=6,col=-27)
         FCB    $86
         FCB    $01               ; SOH
         FCB    $A7
         FCB    $C8
         FCB    $29               ; ')'
$0CDE  3B                  Loc_0CDE:      RTI                    ; return from interrupt

; --------------------------------------------------------------
$0CDF  4F                  Loc_0CDF:      CLRA                   ; A = 0
$0CE0  1F 02                              TFR D,Y               
$0CE2  A6 C8 33                           LDA 51,U              
$0CE5  30 C9 00 B7                        LEAX 183,U            
$0CE9  10 3F 89                           OS9 I$Read             ; path=A  count=Y  buf→X
$0CEC  25 3B                              BCS Loc_0D29           ; C=1 (BLO)
$0CEE  10 AF C9 0E 50                     STY 3664,U            
$0CF3  A6 C9 0E 4A                        LDA 3658,U            
$0CF7  27 0D                              BEQ Loc_0D06          
$0CF9  81 05                              CMPA #$05             
$0CFB  26 06                              BNE Loc_0D03          
$0CFD  4F                                 CLRA                   ; A = 0
$0CFE  B7 0E 4A                           STA $0E4A             
$0D01  20 03                              BRA Loc_0D06          

; --------------------------------------------------------------
$0D03  17 10 ED            Loc_0D03:      LBSR Sub_1DF3          ; call Sub_1DF3
$0D06  8D 34               Loc_0D06:      BSR Sub_0D3C           ; call Sub_0D3C
$0D08  86 01                              LDA #$01              
$0D0A  30 C9 0A D5                        LEAX 2773,U           
$0D0E  10 AE C9 0E 50                     LDY 3664,U            
$0D13  10 8C 00 00                        CMPY #$0000           
$0D17  27 10                              BEQ Loc_0D29          
$0D19  10 3F 8A                           OS9 I$Write            ; path=A  count=Y  buf→X
$0D1C  6D C8 2D                           TST 45,U              
$0D1F  27 08                              BEQ Loc_0D29          
$0D21  6D C8 2E                           TST 46,U              
$0D24  27 03                              BEQ Loc_0D29          
$0D26  17 28 7E                           LBSR Sub_35A7          ; call Sub_35A7
$0D29  6D C9 0E 4B         Loc_0D29:      TST 3659,U            
$0D2D  27 03                              BEQ Loc_0D32          
$0D2F  17 11 06                           LBSR Sub_1E38          ; call Sub_1E38
$0D32  6D C8 2B            Loc_0D32:      TST 43,U              
$0D35  10 27 FC ED                        LBEQ Loc_0A26         
$0D39  16 FC D6                           LBRA Loc_0A12         

; --------------------------------------------------------------
$0D3C  A6 C9 0E 6E         Sub_0D3C:      LDA 3694,U            
$0D40  27 0C                              BEQ Loc_0D4E          
$0D42  81 01                              CMPA #$01             
$0D44  10 27 FC FC                        LBEQ Loc_0A44         
$0D48  81 02                              CMPA #$02             
$0D4A  10 27 FD 5F                        LBEQ Loc_0AAD         
$0D4E  30 C9 00 B7         Loc_0D4E:      LEAX 183,U            
$0D52  31 C9 0A D5                        LEAY 2773,U           
$0D56  E6 C9 0E 51                        LDB 3665,U            
$0D5A  17 16 F8                           LBSR Sub_2455          ; call Sub_2455
$0D5D  39                                 RTS                   

; --------------------------------------------------------------
$0D5E  E6 01               Sub_0D5E:      LDB 1,X               
$0D60  30 02                              LEAX 2,X              
$0D62  A6 80               Loc_0D62:      LDA ,X+               
$0D64  A7 A0                              STA ,Y+               
$0D66  6C C9 0E 51                        INC 3665,U            
$0D6A  5A                                 DECB                  
$0D6B  26 F5                              BNE Loc_0D62          
$0D6D  39                                 RTS                   

; --------------------------------------------------------------
$0D6E  34 16               Loc_0D6E:      PSHS A,B,X            
$0D70  30 C9 0E 28                        LEAX 3624,U           
$0D74  A6 84                              LDA ,X                
$0D76  81 02                              CMPA #$02             
$0D78  27 09                              BEQ Loc_0D83          
$0D7A  30 8D F6 54                        LEAX Dat_03D2,PC       ; X → Dat_03D2
$0D7E  8D DE                              BSR Sub_0D5E           ; call Sub_0D5E
$0D80  16 FE E8            Loc_0D80:      LBRA Loc_0C6B         

; --------------------------------------------------------------
$0D83  30 8D F6 45         Loc_0D83:      LEAX Dat_03CC,PC       ; X → Dat_03CC
$0D87  8D D5                              BSR Sub_0D5E           ; call Sub_0D5E
$0D89  17 02 56                           LBSR Sub_0FE2          ; call Sub_0FE2
$0D8C  20 F2                              BRA Loc_0D80          

; --------------------------------------------------------------
$0D8E  34 16               Loc_0D8E:      PSHS A,B,X            
$0D90  30 8D F6 3B                        LEAX Dat_03CF,PC       ; X → Dat_03CF
$0D94  8D C8                              BSR Sub_0D5E           ; call Sub_0D5E
$0D96  16 FE D2                           LBRA Loc_0C6B         

; --------------------------------------------------------------
$0D99  CC 1A 01            Loc_0D99:      LDD #$1A01            
$0D9C  ED C9 0E 57                        STD 3671,U            
$0DA0  CC 34 0D                           LDD #$340D            
$0DA3  ED C9 0E 59                        STD 3673,U            
$0DA7  17 07 E1                           LBSR Sub_158B          ; call Sub_158B
$0DAA  30 8D F2 FF                        LEAX Dat_00AD,PC       ; X → Dat_00AD
$0DAE  17 06 80                           LBSR Sub_1431          ; call Sub_1431
$0DB1  30 8D F6 75                        LEAX Dat_042A,PC       ; X → Dat_042A
$0DB5  17 06 79                           LBSR Sub_1431          ; call Sub_1431
$0DB8  17 14 62            Loc_0DB8:      LBSR Sub_221D          ; call Sub_221D
$0DBB  81 20                              CMPA #$20              ; compare A with ' '
$0DBD  27 2C                              BEQ Loc_0DEB          
$0DBF  81 05                              CMPA #$05             
$0DC1  27 28                              BEQ Loc_0DEB          
$0DC3  E6 8D FA 96                        LDB Dat_085D,PC       
$0DC7  30 8D FA 93                        LEAX Dat_085E,PC       ; X → Dat_085E
$0DCB  A1 80               Loc_0DCB:      CMPA ,X+              
$0DCD  27 05                              BEQ Loc_0DD4          
$0DCF  5A                                 DECB                  
$0DD0  26 F9                              BNE Loc_0DCB          
$0DD2  20 E4                              BRA Loc_0DB8          

; --------------------------------------------------------------
$0DD4  8B A0               Loc_0DD4:      ADDA #$A0             
$0DD6  34 02                              PSHS A                
$0DD8  30 8D F5 56                        LEAX Dat_0332,PC       ; X → Dat_0332
$0DDC  17 06 52                           LBSR Sub_1431          ; call Sub_1431
$0DDF  30 8D F6 43                        LEAX Dat_0426,PC       ; X → Dat_0426
$0DE3  17 06 4B                           LBSR Sub_1431          ; call Sub_1431
$0DE6  35 02                              PULS A                
$0DE8  16 03 96                           LBRA Loc_1181         

; --------------------------------------------------------------
$0DEB  30 8D F5 43         Loc_0DEB:      LEAX Dat_0332,PC       ; X → Dat_0332
$0DEF  17 06 3F                           LBSR Sub_1431          ; call Sub_1431
$0DF2  17 06 D0                           LBSR Sub_14C5          ; call Sub_14C5
$0DF5  30 8D F6 2D                        LEAX Dat_0426,PC       ; X → Dat_0426
$0DF9  17 06 35                           LBSR Sub_1431          ; call Sub_1431
$0DFC  16 FC 13                           LBRA Loc_0A12         

; --------------------------------------------------------------
$0DFF  34 36               Sub_0DFF:      PSHS A,B,X,Y          
$0E01  A6 C8 33                           LDA 51,U              
$0E04  C6 00                              LDB #$00               ; B = SS.Opt  (GetStt/SetStt subcode)
$0E06  30 C9 0D F6                        LEAX 3574,U           
$0E0A  10 3F 8D                           OS9 I$GetStt           ; path=A  subcode=B  buf→X
$0E0D  30 C9 0D F6                        LEAX 3574,U           
$0E11  17 00 79                           LBSR Sub_0E8D          ; call Sub_0E8D
$0E14  30 C9 15 C5                        LEAX 5573,U           
$0E18  E6 C9 0E 6D                        LDB 3693,U            
$0E1C  E7 88 15                           STB 21,X              
$0E1F  E6 88 14                           LDB 20,X              
$0E22  C4 0F                              ANDB #$0F             
$0E24  EA C9 0E 73                        ORB 3699,U            
$0E26  0E 73               Loc_0E26:      JMP <$73              
$0E28  E7 88 14                           STB 20,X              
$0E2B  6F 88 18                           CLR 24,X              
$0E2E  6F 88 19                           CLR 25,X              
$0E31  E6 C9 0E 77                        LDB 3703,U            
$0E35  E7 04                              STB 4,X               
$0E37  6F 07                              CLR 7,X               
$0E39  30 09                              LEAX 9,X              
$0E3B  C6 0A                              LDB #$0A               ; B = SS.DevNm  (GetStt/SetStt subcode)
$0E3D  6F 80               Loc_0E3D:      CLR ,X+               
$0E3F  5A                                 DECB                  
$0E40  26 FB                              BNE Loc_0E3D          
$0E42  30 C9 15 C5                        LEAX 5573,U           
$0E46  C6 00                              LDB #$00               ; B = SS.Opt  (GetStt/SetStt subcode)
$0E48  10 3F 8E                           OS9 I$SetStt           ; path=A  subcode=B  buf→X
$0E4B  35 B6                              PULS A,B,X,Y,PC        ; return from subroutine  (PULS PC = RTS)

; --------------------------------------------------------------
$0E4D  34 36               Sub_0E4D:      PSHS A,B,X,Y          
$0E4F  86 00                              LDA #$00               ; A = NUL
$0E51  C6 00                              LDB #$00               ; B = SS.Opt  (GetStt/SetStt subcode)
$0E53  30 C9 15 C5                        LEAX 5573,U           
$0E57  10 3F 8D                           OS9 I$GetStt           ; path=A  subcode=B  buf→X
$0E5A  30 C9 15 C5                        LEAX 5573,U           
$0E5E  A6 C9 15 BE                        LDA 5566,U            
$0E62  A7 04                              STA 4,X               
$0E64  86 01                              LDA #$01              
$0E66  A7 05                              STA 5,X               
$0E68  6F 07                              CLR 7,X               
$0E6A  A6 C9 15 BF                        LDA 5567,U            
$0E6E  A7 0C                              STA 12,X              
$0E70  A6 C9 15 C2                        LDA 5570,U            
$0E74  A7 0F                              STA 15,X              
$0E76  A6 C9 15 C0                        LDA 5568,U            
$0E7A  A7 88 10                           STA 16,X              
$0E7D  A6 C9 15 C1                        LDA 5569,U            
$0E81  A7 88 11                           STA 17,X              
$0E84  86 01                              LDA #$01              
$0E86  C6 00                              LDB #$00               ; B = SS.Opt  (GetStt/SetStt subcode)
$0E88  10 3F 8E                           OS9 I$SetStt           ; path=A  subcode=B  buf→X
$0E8B  35 B6                              PULS A,B,X,Y,PC        ; return from subroutine  (PULS PC = RTS)

; --------------------------------------------------------------
$0E8D  34 36               Sub_0E8D:      PSHS A,B,X,Y          
$0E8F  31 C9 15 C5                        LEAY 5573,U           
$0E93  C6 20                              LDB #$20               ; B = SS.ScSiz  (GetStt/SetStt subcode)
$0E95  17 15 BD                           LBSR Sub_2455          ; call Sub_2455
$0E98  35 B6                              PULS A,B,X,Y,PC        ; return from subroutine  (PULS PC = RTS)

; --------------------------------------------------------------
$0E9A  34 16               Sub_0E9A:      PSHS A,B,X            
$0E9C  86 00                              LDA #$00               ; A = NUL
$0E9E  C6 00                              LDB #$00               ; B = SS.Opt  (GetStt/SetStt subcode)
$0EA0  30 C9 0D D4                        LEAX 3540,U           
$0EA4  10 3F 8D                           OS9 I$GetStt           ; path=A  subcode=B  buf→X
$0EA7  A6 88 14                           LDA 20,X              
$0EAA  2A 3B                              BPL Loc_0EE7          
$0EAC  86 01                              LDA #$01              
$0EAE  C6 96                              LDB #$96              
$0EB0  10 3F 8D                           OS9 I$GetStt           ; path=A  subcode=B  buf→X
$0EB3  A7 C8 1B                           STA 27,U              
$0EB6  E7 C8 1C                           STB 28,U              
$0EB9  1F 10                              TFR X,D               
$0EBB  E7 C8 1D                           STB 29,U              
$0EBE  30 C9 0E 18                        LEAX 3608,U           
$0EC2  86 01                              LDA #$01              
$0EC4  C6 91                              LDB #$91              
$0EC6  10 3F 8D                           OS9 I$GetStt           ; path=A  subcode=B  buf→X
$0EC9  86 01                              LDA #$01              
$0ECB  C6 26                              LDB #$26               ; B = SS.FSig  (GetStt/SetStt subcode)
$0ECD  10 3F 8D                           OS9 I$GetStt           ; path=A  subcode=B  buf→X
$0ED0  1F 10                              TFR X,D               
$0ED2  E7 C8 13                           STB 19,U              
$0ED5  1F 20                              TFR Y,D               
$0ED7  E7 C8 14                           STB 20,U              
$0EDA  86 01                              LDA #$01              
$0EDC  C6 93                              LDB #$93              
$0EDE  10 3F 8D                           OS9 I$GetStt           ; path=A  subcode=B  buf→X
$0EE1  A7 C8 15                           STA 21,U              
$0EE4  5F                                 CLRB                   ; B = 0
$0EE5  35 96               Loc_0EE5:      PULS A,B,X,PC          ; return from subroutine  (PULS PC = RTS)

; --------------------------------------------------------------
$0EE7  53                  Loc_0EE7:      COMB                  
$0EE8  20 FB                              BRA Loc_0EE5          

; --------------------------------------------------------------
$0EEA  34 16               Sub_0EEA:      PSHS A,B,X            
$0EEC  86 00                              LDA #$00               ; A = NUL
$0EEE  C6 00                              LDB #$00               ; B = SS.Opt  (GetStt/SetStt subcode)
$0EF0  30 C9 0D D4                        LEAX 3540,U           
$0EF4  10 3F 8E                           OS9 I$SetStt           ; path=A  subcode=B  buf→X
$0EF7  35 96                              PULS A,B,X,PC          ; return from subroutine  (PULS PC = RTS)

; --------------------------------------------------------------
$0EF9  34 36               Sub_0EF9:      PSHS A,B,X,Y          
$0EFB  31 8D F5 05                        LEAY Dat_0404,PC       ; Y → Dat_0404
$0EFF  C6 10                              LDB #$10              
$0F01  30 C9 15 C5                        LEAX 5573,U           
$0F05  17 15 55                           LBSR Sub_245D          ; call Sub_245D
$0F08  30 C9 15 C5                        LEAX 5573,U           
$0F0C  A6 C8 15                           LDA 21,U              
$0F0F  A7 04                              STA 4,X               
$0F11  4F                                 CLRA                   ; A = 0
$0F12  A7 06                              STA 6,X               
$0F14  A6 C8 13                           LDA 19,U              
$0F17  A7 07                              STA 7,X               
$0F19  A6 C8 14                           LDA 20,U              
$0F1C  A7 08                              STA 8,X               
$0F1E  A6 C8 1B                           LDA 27,U              
$0F21  A7 09                              STA 9,X               
$0F23  A6 C8 1C                           LDA 28,U              
$0F26  A7 0A                              STA 10,X              
$0F28  A6 C8 1D                           LDA 29,U              
$0F2B  A7 0B                              STA 11,X              
$0F2D  10 8E 00 0C                        LDY #$000C            
$0F31  86 01                              LDA #$01              
$0F33  10 3F 8A                           OS9 I$Write            ; path=A  count=Y  buf→X
$0F36  CC 1B 21                           LDD #$1B21             ; D=ESC+'!'  → W.Select: Select window
$0F39  ED 84                              STD ,X                
$0F3B  86 01                              LDA #$01              
$0F3D  10 8E 00 02                        LDY #$0002            
$0F41  10 3F 8A                           OS9 I$Write            ; path=A  count=Y  buf→X
$0F44  35 B6                              PULS A,B,X,Y,PC        ; return from subroutine  (PULS PC = RTS)

; --------------------------------------------------------------
$0F46  30 8D F3 B8         Sub_0F46:      LEAX Dat_0302,PC       ; X → Dat_0302
$0F4A  17 04 E4                           LBSR Sub_1431          ; call Sub_1431
$0F4D  39                                 RTS                   

$0F4E  86 01                                      LDA #$01
$0F50  10 3F 8A                                   OS9 I$Write   ; path=A  count=Y  buf→X
$0F53  39                                         RTS 
$0F54  86 00               Sub_0F54:      LDA #$00               ; A = NUL
$0F56  20 03                              BRA Loc_0F5B          

; --------------------------------------------------------------
$0F58  A6 C8 33            Sub_0F58:      LDA 51,U              
$0F5B  C6 01               Loc_0F5B:      LDB #$01               ; B = SS.Ready  (GetStt/SetStt subcode)
$0F5D  10 3F 8D                           OS9 I$GetStt           ; path=A  subcode=B  buf→X
$0F60  39                                 RTS                   

; --------------------------------------------------------------
$0F61  34 24               Sub_0F61:      PSHS B,Y              
$0F63  86 01                              LDA #$01              
$0F65  C6 89                              LDB #$89              
$0F67  30 C9 15 C5                        LEAX 5573,U           
$0F6B  10 8E 00 00                        LDY #$0000            
$0F6F  10 3F 8D                           OS9 I$GetStt           ; path=A  subcode=B  buf→X
$0F72  EC 04                              LDD 4,X               
$0F74  26 08                              BNE Loc_0F7E          
$0F76  6F C8 30                           CLR 48,U              
$0F79  6F C8 2F                           CLR 47,U              
$0F7C  35 A4               Loc_0F7C:      PULS B,Y,PC            ; return from subroutine  (PULS PC = RTS)

; --------------------------------------------------------------
$0F7E  6C C8 30            Loc_0F7E:      INC 48,U              
$0F81  20 F9                              BRA Loc_0F7C          

$0F83  30 8D F3 97                                LEAX -3177,PC
$0F87  17 04 A7                                   LBSR Sub_1431   ; call Sub_1431
$0F8A  39                                         RTS 
$0F8B  30 8D F3 A3                                LEAX Dat_0332,PC   ; X → Dat_0332
$0F8F  17 04 9F                                   LBSR Sub_1431   ; call Sub_1431
$0F92  39                                         RTS 
$0F93  34 06               Sub_0F93:      PSHS A,B              
$0F95  EC C9 0E 5C                        LDD 3676,U            
$0F99  4C                                 INCA                  
$0F9A  A1 C8 1E                           CMPA 30,U             
$0F9D  23 09                              BLS Loc_0FA8          
$0F9F  86 01                              LDA #$01              
$0FA1  5C                                 INCB                  
$0FA2  E1 C8 1F                           CMPB 31,U             
$0FA5  23 01                              BLS Loc_0FA8          
$0FA7  5A                                 DECB                  
$0FA8  ED C9 0E 5C         Loc_0FA8:      STD 3676,U            
$0FAC  35 86                              PULS A,B,PC            ; return from subroutine  (PULS PC = RTS)

; --------------------------------------------------------------
$0FAE  34 06               Sub_0FAE:      PSHS A,B              
$0FB0  EC C9 0E 5C                        LDD 3676,U            
$0FB4  4A                                 DECA                  
$0FB5  26 09                              BNE Loc_0FC0          
$0FB7  A6 C8 1E                           LDA 30,U              
$0FBA  5A                                 DECB                  
$0FBB  26 03                              BNE Loc_0FC0          
$0FBD  CC 01 01                           LDD #$0101            
$0FC0  ED C9 0E 5C         Loc_0FC0:      STD 3676,U            
$0FC4  35 86                              PULS A,B,PC            ; return from subroutine  (PULS PC = RTS)

; --------------------------------------------------------------
$0FC6  6F C9 0E 5C         Sub_0FC6:      CLR 3676,U            
$0FCA  6C C9 0E 5C                        INC 3676,U            
$0FCE  39                                 RTS                   

; --------------------------------------------------------------
$0FCF  34 06               Sub_0FCF:      PSHS A,B              
$0FD1  EC C9 0E 5C                        LDD 3676,U            
$0FD5  5C                                 INCB                  
$0FD6  E1 C8 1F                           CMPB 31,U             
$0FD9  23 01                              BLS Loc_0FDC          
$0FDB  5A                                 DECB                  
$0FDC  ED C9 0E 5C         Loc_0FDC:      STD 3676,U            
$0FE0  35 86                              PULS A,B,PC            ; return from subroutine  (PULS PC = RTS)

; --------------------------------------------------------------
$0FE2  6F C9 0E 5C         Sub_0FE2:      CLR 3676,U            
$0FE6  6F C9 0E 5D                        CLR 3677,U            
$0FEA  6C C9 0E 5C                        INC 3676,U            
$0FEE  6C C9 0E 5D                        INC 3677,U            
$0FF2  39                                 RTS                   

; --------------------------------------------------------------
$0FF3  34 06               Loc_0FF3:      PSHS A,B              
$0FF5  EC C9 0E 5C                        LDD 3676,U            
$0FF9  ED C9 0E 5E                        STD 3678,U            
$0FFD  35 06                              PULS A,B              
$0FFF  16 FA D0                           LBRA Loc_0AD2         

; --------------------------------------------------------------
$1002  34 06               Loc_1002:      PSHS A,B              
$1004  86 02                              LDA #$02              
$1006  A7 A0                              STA ,Y+               
$1008  EC C9 0E 5E                        LDD 3678,U            
$100C  ED C9 0E 5C                        STD 3676,U            
$1010  8B 1F                              ADDA #$1F             
$1012  CB 1F                              ADDB #$1F             
$1014  A7 A0                              STA ,Y+               
$1016  E7 A0                              STB ,Y+               
$1018  E6 C9 0E 51                        LDB 3665,U            
$101C  CB 03                              ADDB #$03             
$101E  E7 C9 0E 51                        STB 3665,U            
$1022  35 06                              PULS A,B              
$1024  16 FA AB                           LBRA Loc_0AD2         

; --------------------------------------------------------------
$1027  34 16               Loc_1027:      PSHS A,B,X            
$1029  30 C9 0E 28                        LEAX 3624,U           
$102D  86 02                              LDA #$02              
$102F  A7 A0                              STA ,Y+               
$1031  A6 01                              LDA 1,X               
$1033  27 0D                              BEQ Loc_1042          
$1035  81 FE                              CMPA #$FE             
$1037  26 04                              BNE Loc_103D          
$1039  A6 02                              LDA 2,X               
$103B  27 05                              BEQ Loc_1042          
$103D  A1 C8 1E            Loc_103D:      CMPA 30,U             
$1040  23 02                              BLS Loc_1044          
$1042  86 01               Loc_1042:      LDA #$01              
$1044  A7 C9 0E 5C         Loc_1044:      STA 3676,U            
$1048  8B 1F                              ADDA #$1F             
$104A  A7 A0                              STA ,Y+               
$104C  A6 84                              LDA ,X                
$104E  27 05                              BEQ Loc_1055          
$1050  A1 C8 1F                           CMPA 31,U             
$1053  23 02                              BLS Loc_1057          
$1055  86 01               Loc_1055:      LDA #$01              
$1057  A7 C9 0E 5D         Loc_1057:      STA 3677,U            
$105B  8B 1F                              ADDA #$1F             
$105D  A7 A0                              STA ,Y+               
$105F  E6 C9 0E 51                        LDB 3665,U            
$1063  CB 03                              ADDB #$03             
$1065  E7 C9 0E 51                        STB 3665,U            
$1069  35 16                              PULS A,B,X            
$106B  16 FA 64                           LBRA Loc_0AD2         

; --------------------------------------------------------------
$106E  34 16               Loc_106E:      PSHS A,B,X            
$1070  30 C9 0E 28                        LEAX 3624,U           
$1074  A6 84                              LDA ,X                
$1076  A1 C8 1E                           CMPA 30,U             
$1079  24 03                              BCC Loc_107E           ; C=0 (BHS)
$107B  4D                                 TSTA                  
$107C  26 02                              BNE Loc_1080          
$107E  86 01               Loc_107E:      LDA #$01              
$1080  AB C9 0E 5C         Loc_1080:      ADDA 3676,U           
$1084  A1 C8 1E                           CMPA 30,U             
$1087  23 03                              BLS Loc_108C          
$1089  A6 C8 1E                           LDA 30,U              
$108C  A7 C9 0E 5C         Loc_108C:      STA 3676,U            
$1090  C6 02               Loc_1090:      LDB #$02               ; B = SS.Size  (GetStt/SetStt subcode)
$1092  E7 A0                              STB ,Y+               
$1094  EC C9 0E 5C                        LDD 3676,U            
$1098  8B 1F                              ADDA #$1F             
$109A  CB 1F                              ADDB #$1F             
$109C  A7 A0                              STA ,Y+               
$109E  E7 A0                              STB ,Y+               
$10A0  E6 C9 0E 51                        LDB 3665,U            
$10A4  CB 03                              ADDB #$03             
$10A6  E7 C9 0E 51                        STB 3665,U            
$10AA  35 16                              PULS A,B,X            
$10AC  16 FA 23                           LBRA Loc_0AD2         

; --------------------------------------------------------------
$10AF  34 16               Loc_10AF:      PSHS A,B,X            
$10B1  30 C9 0E 28                        LEAX 3624,U           
$10B5  A6 84                              LDA ,X                
$10B7  A1 C8 1E                           CMPA 30,U             
$10BA  24 03                              BCC Loc_10BF           ; C=0 (BHS)
$10BC  4D                                 TSTA                  
$10BD  26 02                              BNE Loc_10C1          
$10BF  86 01               Loc_10BF:      LDA #$01              
$10C1  A7 C9 0E 4C         Loc_10C1:      STA 3660,U            
$10C5  A6 C9 0E 5C                        LDA 3676,U            
$10C9  A0 C9 0E 4C                        SUBA 3660,U           
$10CD  2E 02                              BGT Loc_10D1          
$10CF  86 01                              LDA #$01              
$10D1  A7 C9 0E 5C         Loc_10D1:      STA 3676,U            
$10D5  16 FF B8                           LBRA Loc_1090         

; --------------------------------------------------------------
$10D8  34 16               Loc_10D8:      PSHS A,B,X            
$10DA  30 C9 0E 28                        LEAX 3624,U           
$10DE  A6 84                              LDA ,X                
$10E0  A1 C8 1F                           CMPA 31,U             
$10E3  24 03                              BCC Loc_10E8           ; C=0 (BHS)
$10E5  4D                                 TSTA                  
$10E6  26 02                              BNE Loc_10EA          
$10E8  86 01               Loc_10E8:      LDA #$01              
$10EA  A7 C9 0E 4C         Loc_10EA:      STA 3660,U            
$10EE  A6 C9 0E 5D                        LDA 3677,U            
$10F2  A0 C9 0E 4C                        SUBA 3660,U           
$10F6  2E 02                              BGT Loc_10FA          
$10F8  86 01                              LDA #$01              
$10FA  A7 C9 0E 5D         Loc_10FA:      STA 3677,U            
$10FE  16 FF 8F                           LBRA Loc_1090         

; --------------------------------------------------------------
$1101  34 16               Loc_1101:      PSHS A,B,X            
$1103  30 C9 0E 28                        LEAX 3624,U           
$1107  A6 84                              LDA ,X                
$1109  A1 C8 1F                           CMPA 31,U             
$110C  24 03                              BCC Loc_1111           ; C=0 (BHS)
$110E  4D                                 TSTA                  
$110F  26 02                              BNE Loc_1113          
$1111  86 01               Loc_1111:      LDA #$01              
$1113  AB C9 0E 5D         Loc_1113:      ADDA 3677,U           
$1117  A1 C8 1F                           CMPA 31,U             
$111A  23 03                              BLS Loc_111F          
$111C  A6 C8 1F                           LDA 31,U              
$111F  A7 C9 0E 5D         Loc_111F:      STA 3677,U            
$1123  16 FF 6A                           LBRA Loc_1090         

; --------------------------------------------------------------
$1126  86 01               Loc_1126:      LDA #$01              
$1128  C6 89                              LDB #$89              
$112A  30 C9 15 C5                        LEAX 5573,U           
$112E  34 20                              PSHS Y                
$1130  10 8E 00 00                        LDY #$0000            
$1134  10 3F 8D                           OS9 I$GetStt           ; path=A  subcode=B  buf→X
$1137  35 20                              PULS Y                
$1139  A6 84                              LDA ,X                
$113B  27 18                              BEQ Loc_1155          
$113D  EC 04                              LDD 4,X               
$113F  27 14                              BEQ Loc_1155          
$1141  A6 0A                              LDA 10,X              
$1143  27 10                              BEQ Loc_1155          
$1145  A1 C8 2F                           CMPA 47,U             
$1148  23 0B                              BLS Loc_1155          
$114A  86 0D                              LDA #$0D               ; A = CR
$114C  A7 C9 09 D6                        STA 2518,U            
$1150  6C C8 2F                           INC 47,U              
$1153  20 1A                              BRA Loc_116F          

; --------------------------------------------------------------
$1155  16 F8 BA            Loc_1155:      LBRA Loc_0A12         

; --------------------------------------------------------------
$1158  86 00               Loc_1158:      LDA #$00               ; A = NUL
$115A  C6 27                              LDB #$27               ; B = SS.Sign  (GetStt/SetStt subcode)
$115C  10 3F 8D                           OS9 I$GetStt           ; path=A  subcode=B  buf→X
$115F  A7 C8 49                           STA 73,U              
$1162  86 00                              LDA #$00               ; A = NUL
$1164  10 8E 00 01                        LDY #$0001            
$1168  30 C9 09 D6                        LEAX 2518,U           
$116C  10 3F 89                           OS9 I$Read             ; path=A  count=Y  buf→X
$116F  A6 C9 09 D6         Loc_116F:      LDA 2518,U            
$1173  6F C9 09 D6                        CLR 2518,U            
$1177  E6 C9 0E 6E                        LDB 3694,U            
$117B  C1 02                              CMPB #$02             
$117D  10 27 09 35                        LBEQ Loc_1AB6         
$1181  81 F1               Loc_1181:      CMPA #$F1             
$1183  10 27 02 B3                        LBEQ Loc_143A         
$1187  81 E8                              CMPA #$E8             
$1189  10 27 FC 0C                        LBEQ Loc_0D99         
$118D  81 AF                              CMPA #$AF             
$118F  10 27 FC 06                        LBEQ Loc_0D99         
$1193  81 E1                              CMPA #$E1             
$1195  10 27 14 35                        LBEQ Loc_25CE         
$1199  81 E2                              CMPA #$E2             
$119B  26 03                              BNE Loc_11A0          
$119D  17 05 51                           LBSR Sub_16F1          ; call Sub_16F1
$11A0  81 E5               Loc_11A0:      CMPA #$E5             
$11A2  26 00                              BNE Loc_11A4          
$11A4  81 F4               Loc_11A4:      CMPA #$F4             
$11A6  26 03                              BNE Loc_11AB          
$11A8  17 06 5B                           LBSR Sub_1806          ; call Sub_1806
$11AB  81 F5               Loc_11AB:      CMPA #$F5             
$11AD  26 03                              BNE Loc_11B2          
$11AF  17 13 DF                           LBSR Sub_2591          ; call Sub_2591
$11B2  81 E3               Loc_11B2:      CMPA #$E3             
$11B4  26 03                              BNE Loc_11B9          
$11B6  17 06 D4                           LBSR Sub_188D          ; call Sub_188D
$11B9  81 85               Loc_11B9:      CMPA #$85             
$11BB  26 03                              BNE Loc_11C0          
$11BD  17 05 17                           LBSR Sub_16D7          ; call Sub_16D7
$11C0  81 E6               Loc_11C0:      CMPA #$E6             
$11C2  26 03                              BNE Loc_11C7          
$11C4  17 22 54                           LBSR Sub_341B          ; call Sub_341B
$11C7  81 F2               Loc_11C7:      CMPA #$F2             
$11C9  10 27 00 CC                        LBEQ Loc_1299         
$11CD  81 F3                              CMPA #$F3             
$11CF  10 27 00 D7                        LBEQ Loc_12AA         
$11D3  81 F8                              CMPA #$F8             
$11D5  10 27 1A 55                        LBEQ Loc_2C2E         
$11D9  81 F9                              CMPA #$F9             
$11DB  26 06                              BNE Loc_11E3          
$11DD  6C C8 4D                           INC 77,U              
$11E0  16 1A 4B                           LBRA Loc_2C2E         

; --------------------------------------------------------------
$11E3  81 EF               Loc_11E3:      CMPA #$EF             
$11E5  26 03                              BNE Loc_11EA          
$11E7  17 06 BE                           LBSR Sub_18A8          ; call Sub_18A8
$11EA  81 ED               Loc_11EA:      CMPA #$ED             
$11EC  26 03                              BNE Loc_11F1          
$11EE  17 09 D7                           LBSR Sub_1BC8          ; call Sub_1BC8
$11F1  81 E4               Loc_11F1:      CMPA #$E4             
$11F3  26 03                              BNE Loc_11F8          
$11F5  17 09 1A                           LBSR Sub_1B12          ; call Sub_1B12
$11F8  81 FA               Loc_11F8:      CMPA #$FA             
$11FA  26 03                              BNE Loc_11FF          
$11FC  17 0C 9A                           LBSR Sub_1E99          ; call Sub_1E99
$11FF  81 F7               Loc_11FF:      CMPA #$F7             
$1201  26 09                              BNE Loc_120C          
$1203  6C C8 4E                           INC 78,U              
$1206  6C C8 4D                           INC 77,U              
$1209  16 1A 22                           LBRA Loc_2C2E         

; --------------------------------------------------------------
$120C  E6 C8 49            Loc_120C:      LDB 73,U              
$120F  C4 04                              ANDB #$04             
$1211  27 0E                              BEQ Loc_1221          
$1213  81 B1                              CMPA #$B1             
$1215  25 10                              BCS Loc_1227           ; C=1 (BLO)
$1217  81 B8                              CMPA #$B8             
$1219  22 0C                              BHI Loc_1227          
$121B  17 01 2A                           LBSR Sub_1348          ; call Sub_1348
$121E  16 F7 F1                           LBRA Loc_0A12         

; --------------------------------------------------------------
$1221  81 B1               Loc_1221:      CMPA #$B1             
$1223  10 27 FB 72                        LBEQ Loc_0D99         
$1227  81 AF               Loc_1227:      CMPA #$AF             
$1229  22 6B                              BHI Loc_1296          
$122B  A7 C9 04 C7                        STA 1223,U            
$122F  6D C9 0E 71                        TST 3697,U            
$1233  27 0E                              BEQ Loc_1243          
$1235  86 01                              LDA #$01              
$1237  C6 98                              LDB #$98              
$1239  8E 28 01                           LDX #$2801            
$123C  10 8E 09 00                        LDY #$0900            
$1240  10 3F 8E                           OS9 I$SetStt           ; path=A  subcode=B  buf→X
$1243  10 8E 00 01         Loc_1243:      LDY #$0001            
$1247  30 C9 04 C7                        LEAX 1223,U           
$124B  A6 84                              LDA ,X                
$124D  81 0D                              CMPA #$0D              ; compare A with CR
$124F  26 0C                              BNE Loc_125D          
$1251  6D C9 15 BD                        TST 5565,U            
$1255  27 06                              BEQ Loc_125D          
$1257  86 0A                              LDA #$0A               ; A = LF
$1259  A7 01                              STA 1,X               
$125B  31 21                              LEAY 1,Y              
$125D  A6 C8 33            Loc_125D:      LDA 51,U              
$1260  10 3F 8A                           OS9 I$Write            ; path=A  count=Y  buf→X
$1263  6D C9 04 C7                        TST 1223,U            
$1267  2B 2D                              BMI Loc_1296          
$1269  A6 C9 0E 6F                        LDA 3695,U            
$126D  27 27                              BEQ Loc_1296          
$126F  6D C9 0E 70                        TST 3696,U            
$1273  27 14                              BEQ Loc_1289          
$1275  A6 C9 04 C7                        LDA 1223,U            
$1279  81 0D                              CMPA #$0D              ; compare A with CR
$127B  26 0C                              BNE Loc_1289          
$127D  86 0A                              LDA #$0A               ; A = LF
$127F  A7 C9 04 C8                        STA 1224,U            
$1283  10 8E 00 02                        LDY #$0002            
$1287  20 04                              BRA Loc_128D          

; --------------------------------------------------------------
$1289  10 8E 00 01         Loc_1289:      LDY #$0001            
$128D  30 C9 04 C7         Loc_128D:      LEAX 1223,U           
$1291  86 01                              LDA #$01              
$1293  10 3F 8A                           OS9 I$Write            ; path=A  count=Y  buf→X
$1296  16 F7 79            Loc_1296:      LBRA Loc_0A12         

; --------------------------------------------------------------
$1299  34 32               Loc_1299:      PSHS A,X,Y            
$129B  30 8D F0 A5                        LEAX Dat_0344,PC       ; X → Dat_0344
$129F  17 01 8F                           LBSR Sub_1431          ; call Sub_1431
$12A2  17 02 C3                           LBSR Sub_1568          ; call Sub_1568
$12A5  35 32                              PULS A,X,Y            
$12A7  16 F7 68                           LBRA Loc_0A12         

; --------------------------------------------------------------
$12AA  34 40               Loc_12AA:      PSHS U                
$12AC  17 FC 3B                           LBSR Sub_0EEA          ; call Sub_0EEA
$12AF  C6 13                              LDB #$13               ; B = XOFF
$12B1  31 8D F0 6B                        LEAY Dat_0320,PC       ; Y → Dat_0320
$12B5  30 C9 15 C5                        LEAX 5573,U           
$12B9  17 11 A1                           LBSR Sub_245D          ; call Sub_245D
$12BC  30 C9 15 C5                        LEAX 5573,U           
$12C0  A6 C8 1E                           LDA 30,U              
$12C3  A7 05                              STA 5,X               
$12C5  A6 C8 1F                           LDA 31,U              
$12C8  6D C8 48                           TST 72,U              
$12CB  27 02                              BEQ Loc_12CF          
$12CD  80 03                              SUBA #$03             
$12CF  A7 06               Loc_12CF:      STA 6,X               
$12D1  A6 C8 1A                           LDA 26,U              
$12D4  E6 C8 19                           LDB 25,U              
$12D7  ED 07                              STD 7,X               
$12D9  86 01                              LDA #$01              
$12DB  10 8E 00 09                        LDY #$0009            
$12DF  10 3F 8A                           OS9 I$Write            ; path=A  count=Y  buf→X
$12E2  33 8D EF DD                        LEAU Dat_02C3,PC       ; U → Dat_02C3
$12E6  30 8D EF D4                        LEAX Dat_02BE,PC       ; X → Dat_02BE
$12EA  5F                                 CLRB                   ; B = 0
$12EB  86 11                              LDA #$11               ; A = XON
$12ED  10 3F 03                           OS9 F$Fork             ; module→D:X  args→Y  size=D
$12F0  35 40                              PULS U                
$12F2  10 3F 04                           OS9 F$Wait             ; → wait for child; status→D
$12F5  86 01                              LDA #$01              
$12F7  30 8D F0 39                        LEAX Dat_0334,PC       ; X → Dat_0334
$12FB  10 8E 00 02                        LDY #$0002            
$12FF  10 3F 8A                           OS9 I$Write            ; path=A  count=Y  buf→X
$1302  17 FB 48                           LBSR Sub_0E4D          ; call Sub_0E4D
$1305  16 F7 0A                           LBRA Loc_0A12         

$1308  A6 80                                      LDA ,X+
$130A  A7 A0                                      STA ,Y+
$130C  81 20                                      CMPA #$20   ; compare A with ' '
$130E  27 03                                      BEQ $1313
$1310  5A                                         DECB 
$1311  26 F5                                      BNE $1308
$1313  39                                         RTS 
$1314  5F                                         CLRB    ; B = 0
$1315  81 0A                                      CMPA #$0A   ; compare A with LF
$1317  25 05                                      BCS $131E   ; C=1 (BLO)
$1319  80 0A                                      SUBA #$0A
$131B  5C                                         INCB 
$131C  20 F7                                      BRA $1315
$131E  8B 30                                      ADDA #$30
$1320  CB 30                                      ADDB #$30
$1322  E7 A0                                      STB ,Y+
$1324  A7 A0                                      STA ,Y+
$1326  39                                         RTS 
$1327  5F                                         CLRB    ; B = 0
$1328  81 0A                                      CMPA #$0A   ; compare A with LF
$132A  25 05                                      BCS $1331   ; C=1 (BLO)
$132C  80 0A                                      SUBA #$0A
$132E  5C                                         INCB 
$132F  20 F7                                      BRA $1328
$1331  CB 30                                      ADDB #$30
$1333  8B 30                                      ADDA #$30
$1335  C1 30                                      CMPB #$30   ; compare B with '0'
$1337  26 02                                      BNE $133B
$1339  C6 20                                      LDB #$20   ; B = SS.ScSiz  (GetStt/SetStt subcode)
$133B  E7 80                                      STB ,X+
$133D  A7 80                                      STA ,X+
$133F  39                                         RTS 
$1340  34 36               Sub_1340:      PSHS A,B,X,Y          
$1342  30 C9 15 38                        LEAX 5432,U           
$1346  20 0D                              BRA Loc_1355          

; --------------------------------------------------------------
$1348  34 36               Sub_1348:      PSHS A,B,X,Y          
$134A  80 B1                              SUBA #$B1             
$134C  C6 80                              LDB #$80              
$134E  3D                                 MUL                    ; D = A×B unsigned
$134F  30 C9 0F 38                        LEAX 3896,U           
$1353  30 8B                              LEAX D,X              
$1355  34 10               Loc_1355:      PSHS X                
$1357  5F                                 CLRB                   ; B = 0
$1358  A6 80               Loc_1358:      LDA ,X+               
$135A  5C                                 INCB                  
$135B  C1 80                              CMPB #$80             
$135D  22 04                              BHI Loc_1363          
$135F  81 0D                              CMPA #$0D              ; compare A with CR
$1361  26 F5                              BNE Loc_1358          
$1363  5A                  Loc_1363:      DECB                  
$1364  4F                                 CLRA                   ; A = 0
$1365  35 10                              PULS X                
$1367  5D                                 TSTB                  
$1368  27 0D                              BEQ Loc_1377          
$136A  A6 80               Loc_136A:      LDA ,X+               
$136C  5A                                 DECB                  
$136D  81 5C                              CMPA #$5C              ; compare A with '\'
$136F  27 14                              BEQ Loc_1385          
$1371  17 00 2B                           LBSR Sub_139F          ; call Sub_139F
$1374  5D                  Loc_1374:      TSTB                  
$1375  26 F3                              BNE Loc_136A          
$1377  35 B6               Loc_1377:      PULS A,B,X,Y,PC        ; return from subroutine  (PULS PC = RTS)

; --------------------------------------------------------------
$1379  34 10               Loc_1379:      PSHS X                
$137B  8E 00 1E                           LDX #$001E            
$137E  10 3F 0A                           OS9 F$Sleep            ; ticks→X  (0=forever)
$1381  35 10                              PULS X                
$1383  20 EF                              BRA Loc_1374          

; --------------------------------------------------------------
$1385  A6 80               Loc_1385:      LDA ,X+               
$1387  5A                                 DECB                  
$1388  81 5E                              CMPA #$5E              ; compare A with '^'
$138A  27 0F                              BEQ Loc_139B          
$138C  81 2A                              CMPA #$2A              ; compare A with '*'
$138E  27 E9                              BEQ Loc_1379          
$1390  81 5C                              CMPA #$5C              ; compare A with '\'
$1392  27 02                              BEQ Loc_1396          
$1394  80 40                              SUBA #$40             
$1396  17 00 06            Loc_1396:      LBSR Sub_139F          ; call Sub_139F
$1399  20 D9                              BRA Loc_1374          

; --------------------------------------------------------------
$139B  86 1B               Loc_139B:      LDA #$1B               ; A = ESC
$139D  20 F7                              BRA Loc_1396          

; --------------------------------------------------------------
$139F  34 32               Sub_139F:      PSHS A,X,Y            
$13A1  30 C9 15 C5                        LEAX 5573,U           
$13A5  A7 84                              STA ,X                
$13A7  10 8E 00 01                        LDY #$0001            
$13AB  A6 C8 33                           LDA 51,U              
$13AE  10 3F 8A                           OS9 I$Write            ; path=A  count=Y  buf→X
$13B1  35 B2                              PULS A,X,Y,PC          ; return from subroutine  (PULS PC = RTS)

; --------------------------------------------------------------
$13B3  34 36               Sub_13B3:      PSHS A,B,X,Y          
$13B5  CC 1B 24                           LDD #$1B24             ; D=ESC+'$'  → W.DWEnd: Device Window End
$13B8  ED C9 15 C5                        STD 5573,U            
$13BC  86 01                              LDA #$01              
$13BE  10 8E 00 02                        LDY #$0002            
$13C2  30 C9 15 C5                        LEAX 5573,U           
$13C6  10 3F 8A                           OS9 I$Write            ; path=A  count=Y  buf→X
$13C9  31 8D F0 37                        LEAY Dat_0404,PC       ; Y → Dat_0404
$13CD  30 C9 15 C5                        LEAX 5573,U           
$13D1  C6 0C                              LDB #$0C               ; B = FF
$13D3  17 10 87                           LBSR Sub_245D          ; call Sub_245D
$13D6  30 C9 15 C5                        LEAX 5573,U           
$13DA  30 02                              LEAX 2,X              
$13DC  86 1E                              LDA #$1E              
$13DE  A7 C9 0E 4C         Loc_13DE:      STA 3660,U            
$13E2  A7 06                              STA 6,X               
$13E4  A7 C8 1F                           STA 31,U              
$13E7  10 8E 00 0A                        LDY #$000A            
$13EB  86 01                              LDA #$01              
$13ED  10 3F 8A                           OS9 I$Write            ; path=A  count=Y  buf→X
$13F0  25 0C                              BCS Loc_13FE           ; C=1 (BLO)
$13F2  A6 05                              LDA 5,X               
$13F4  A7 C8 1E                           STA 30,U              
$13F7  A6 06                              LDA 6,X               
$13F9  A7 C8 1F                           STA 31,U              
$13FC  35 B6               Loc_13FC:      PULS A,B,X,Y,PC        ; return from subroutine  (PULS PC = RTS)

; --------------------------------------------------------------
$13FE  A6 C9 0E 4C         Loc_13FE:      LDA 3660,U            
$1402  4A                                 DECA                  
$1403  81 0A                              CMPA #$0A              ; compare A with LF
$1405  22 03                              BHI Loc_140A          
$1407  53                                 COMB                  
$1408  20 F2                              BRA Loc_13FC          

; --------------------------------------------------------------
$140A  20 D2               Loc_140A:      BRA Loc_13DE          

$140C  30 8D F0 00                                LEAX Dat_0410,PC   ; X → Dat_0410
$1410  10 8E 00 02                                LDY #$0002
$1414  20 D5                                      BRA $13EB
$1416  30 8D EF BF         Sub_1416:      LEAX Dat_03D9,PC       ; X → Dat_03D9
$141A  86 02                              LDA #$02              
$141C  10 3F 84                           OS9 I$Open             ; mode=B  name→X  → path→A
$141F  A7 C8 46                           STA 70,U              
$1422  30 8D EF EC                        LEAX Dat_0412,PC       ; X → Dat_0412
$1426  10 8E 00 0A                        LDY #$000A            
$142A  A6 C8 46                           LDA 70,U              
$142D  10 3F 8A                           OS9 I$Write            ; path=A  count=Y  buf→X
$1430  39                                 RTS                   

; --------------------------------------------------------------
$1431  86 01               Sub_1431:      LDA #$01              
$1433  10 AE 81            Sub_1433:      LDY ,X++              
$1436  10 3F 8A                           OS9 I$Write            ; path=A  count=Y  buf→X
$1439  39                                 RTS                   

; --------------------------------------------------------------
$143A  17 00 0F            Loc_143A:      LBSR Sub_144C          ; call Sub_144C
$143D  81 79                              CMPA #$79              ; compare A with 'y'
$143F  10 27 F8 71                        LBEQ Loc_0CB4         
$1443  81 59                              CMPA #$59              ; compare A with 'Y'
$1445  10 27 F8 6B                        LBEQ Loc_0CB4         
$1449  16 F5 C6                           LBRA Loc_0A12         

; --------------------------------------------------------------
$144C  34 20               Sub_144C:      PSHS Y                
$144E  CC 1D 04                           LDD #$1D04            
$1451  ED C9 0E 57                        STD 3671,U            
$1455  CC 16 03                           LDD #$1603            
$1458  ED C9 0E 59                        STD 3673,U            
$145C  17 01 2C                           LBSR Sub_158B          ; call Sub_158B
$145F  30 8D EF D1                        LEAX Dat_0434,PC       ; X → Dat_0434
$1463  17 FF CB                           LBSR Sub_1431          ; call Sub_1431
$1466  30 8D EF C0                        LEAX Dat_042A,PC       ; X → Dat_042A
$146A  17 FF C4                           LBSR Sub_1431          ; call Sub_1431
$146D  17 0D A4                           LBSR Sub_2214          ; call Sub_2214
$1470  34 02                              PSHS A                
$1472  30 8D EF B0                        LEAX Dat_0426,PC       ; X → Dat_0426
$1476  17 FF B8                           LBSR Sub_1431          ; call Sub_1431
$1479  17 01 65                           LBSR Sub_15E1          ; call Sub_15E1
$147C  35 02                              PULS A                
$147E  35 A0                              PULS Y,PC              ; return from subroutine  (PULS PC = RTS)

; --------------------------------------------------------------
$1480  34 14               Sub_1480:      PSHS B,X              
$1482  30 C9 0E 61                        LEAX 3681,U           
$1486  10 3F 15                           OS9 F$Time             ; buf→X  → 6-byte time
$1489  A6 05                              LDA 5,X               
$148B  8E 00 02                           LDX #$0002            
$148E  10 3F 0A                           OS9 F$Sleep            ; ticks→X  (0=forever)
$1491  35 94                              PULS B,X,PC            ; return from subroutine  (PULS PC = RTS)

; --------------------------------------------------------------
$1493  34 36               Sub_1493:      PSHS A,B,X,Y          
$1495  86 01                              LDA #$01              
$1497  A7 C9 15 BE                        STA 5566,U            
$149B  86 05                              LDA #$05              
$149D  A7 C9 15 C1                        STA 5569,U            
$14A1  17 F9 A9                           LBSR Sub_0E4D          ; call Sub_0E4D
$14A4  4F                                 CLRA                   ; A = 0
$14A5  1F 02                              TFR D,Y               
$14A7  86 00                              LDA #$00               ; A = NUL
$14A9  30 C9 09 D6                        LEAX 2518,U           
$14AD  10 3F 8B                           OS9 I$ReadLn           ; path=A  max=Y  buf→X
$14B0  10 AF C8 24                        STY 36,U              
$14B4  6F C9 15 BE                        CLR 5566,U            
$14B8  6F C9 15 C0                        CLR 5568,U            
$14BC  6F C9 15 C1                        CLR 5569,U            
$14C0  17 F9 8A                           LBSR Sub_0E4D          ; call Sub_0E4D
$14C3  35 B6                              PULS A,B,X,Y,PC        ; return from subroutine  (PULS PC = RTS)

; --------------------------------------------------------------
$14C5  86 00               Sub_14C5:      LDA #$00               ; A = NUL
$14C7  C6 01                              LDB #$01               ; B = SS.Ready  (GetStt/SetStt subcode)
$14C9  10 3F 8D                           OS9 I$GetStt           ; path=A  subcode=B  buf→X
$14CC  24 01                              BCC Loc_14CF           ; C=0 (BHS)
$14CE  39                                 RTS                   

; --------------------------------------------------------------
$14CF  5D                  Loc_14CF:      TSTB                  
$14D0  27 0C                              BEQ Loc_14DE          
$14D2  4F                                 CLRA                   ; A = 0
$14D3  1F 02                              TFR D,Y               
$14D5  30 C9 15 C5                        LEAX 5573,U           
$14D9  86 00                              LDA #$00               ; A = NUL
$14DB  10 3F 89                           OS9 I$Read             ; path=A  count=Y  buf→X
$14DE  39                  Loc_14DE:      RTS                   

; --------------------------------------------------------------
$14DF  34 16               Sub_14DF:      PSHS A,B,X            
$14E1  C6 08                              LDB #$08               ; B = BS
$14E3  30 C9 0F 38                        LEAX 3896,U           
$14E7  86 0D                              LDA #$0D               ; A = CR
$14E9  A7 84               Loc_14E9:      STA ,X                
$14EB  A7 01                              STA 1,X               
$14ED  30 89 00 80                        LEAX 128,X            
$14F1  5A                                 DECB                  
$14F2  26 F5                              BNE Loc_14E9          
$14F4  35 96                              PULS A,B,X,PC          ; return from subroutine  (PULS PC = RTS)

; --------------------------------------------------------------
$14F6  39                  Sub_14F6:      RTS                   

; --------------------------------------------------------------
$14F7  A6 C8 6D            Sub_14F7:      LDA 109,U             
$14FA  81 02                              CMPA #$02             
$14FC  26 06                              BNE Loc_1504          
$14FE  31 8D ED CA                        LEAY Dat_02CC,PC       ; Y → Dat_02CC
$1502  20 3D                              BRA Loc_1541          

; --------------------------------------------------------------
$1504  6D C9 0E 6E         Loc_1504:      TST 3694,U            
$1508  26 1D                              BNE Loc_1527          
$150A  31 8D ED DE                        LEAY Dat_02EC,PC       ; Y → Dat_02EC
$150E  CC 06 01                           LDD #$0601            
$1511  A7 C8 16                           STA 22,U              
$1514  E7 C8 17                           STB 23,U              
$1517  86 02                              LDA #$02              
$1519  A7 C8 19                           STA 25,U              
$151C  4F                                 CLRA                   ; A = 0
$151D  A7 C8 18                           STA 24,U              
$1520  86 07                              LDA #$07              
$1522  A7 C8 1A                           STA 26,U              
$1525  20 1A                              BRA Loc_1541          

; --------------------------------------------------------------
$1527  31 8D ED B1         Loc_1527:      LEAY Dat_02DC,PC       ; Y → Dat_02DC
$152B  CC 05 04                           LDD #$0504            
$152E  A7 C8 16                           STA 22,U              
$1531  E7 C8 17                           STB 23,U              
$1534  4F                                 CLRA                   ; A = 0
$1535  A7 C8 19                           STA 25,U              
$1538  86 07                              LDA #$07              
$153A  A7 C8 18                           STA 24,U              
$153D  4A                                 DECA                  
$153E  A7 C8 1A                           STA 26,U              
$1541  30 C9 15 C5         Loc_1541:      LEAX 5573,U           
$1545  CC 1B 31                           LDD #$1B31             ; D=ESC+$31
$1548  ED 84                              STD ,X                
$154A  4F                                 CLRA                   ; A = 0
$154B  E6 A6               Loc_154B:      LDB A,Y               
$154D  34 22                              PSHS A,Y              
$154F  ED 02                              STD 2,X               
$1551  10 8E 00 04                        LDY #$0004            
$1555  86 01                              LDA #$01              
$1557  10 3F 8A                           OS9 I$Write            ; path=A  count=Y  buf→X
$155A  35 22                              PULS A,Y              
$155C  4C                                 INCA                  
$155D  81 10                              CMPA #$10             
$155F  25 EA                              BCS Loc_154B           ; C=1 (BLO)
$1561  17 0E 32                           LBSR Sub_2396          ; call Sub_2396
$1564  17 0D E6                           LBSR Sub_234D          ; call Sub_234D
$1567  39                                 RTS                   

; --------------------------------------------------------------
$1568  34 12               Sub_1568:      PSHS A,X              
$156A  6D C9 0E 6E                        TST 3694,U            
$156E  26 06                              BNE Loc_1576          
$1570  30 8D ED 8B                        LEAX Dat_02FF,PC       ; X → Dat_02FF
$1574  20 04                              BRA Loc_157A          

; --------------------------------------------------------------
$1576  30 8D ED 82         Loc_1576:      LEAX Dat_02FC,PC       ; X → Dat_02FC
$157A  A6 84               Loc_157A:      LDA ,X                
$157C  17 06 2C                           LBSR Sub_1BAB          ; call Sub_1BAB
$157F  A6 01                              LDA 1,X               
$1581  17 06 1B                           LBSR Sub_1B9F          ; call Sub_1B9F
$1584  A6 02                              LDA 2,X               
$1586  17 06 1C                           LBSR Sub_1BA5          ; call Sub_1BA5
$1589  35 92                              PULS A,X,PC            ; return from subroutine  (PULS PC = RTS)

; --------------------------------------------------------------
$158B  34 36               Sub_158B:      PSHS A,B,X,Y          
$158D  30 C9 15 C5                        LEAX 5573,U           
$1591  CC 1B 22                           LDD #$1B22             ; D=ESC+'"'  → W.OWSet: Overlay Window Set
$1594  ED 84                              STD ,X                
$1596  86 01                              LDA #$01              
$1598  A7 02                              STA 2,X               
$159A  EC C9 0E 57                        LDD 3671,U            
$159E  8B 01                              ADDA #$01             
$15A0  CB 01                              ADDB #$01             
$15A2  ED 03                              STD 3,X               
$15A4  EC C9 0E 59                        LDD 3673,U            
$15A8  ED 05                              STD 5,X               
$15AA  E6 C8 16                           LDB 22,U              
$15AD  4F                                 CLRA                   ; A = 0
$15AE  ED 07                              STD 7,X               
$15B0  86 01                              LDA #$01              
$15B2  10 8E 00 09                        LDY #$0009            
$15B6  10 3F 8A                           OS9 I$Write            ; path=A  count=Y  buf→X
$15B9  CC 1B 22                           LDD #$1B22             ; D=ESC+'"'  → W.OWSet: Overlay Window Set
$15BC  ED 84                              STD ,X                
$15BE  86 01                              LDA #$01              
$15C0  A7 02                              STA 2,X               
$15C2  EC C9 0E 57                        LDD 3671,U            
$15C6  ED 03                              STD 3,X               
$15C8  EC C9 0E 59                        LDD 3673,U            
$15CC  ED 05                              STD 5,X               
$15CE  A6 C8 18                           LDA 24,U              
$15D1  E6 C8 17                           LDB 23,U              
$15D4  ED 07                              STD 7,X               
$15D6  86 01                              LDA #$01              
$15D8  10 8E 00 09                        LDY #$0009            
$15DC  10 3F 8A                           OS9 I$Write            ; path=A  count=Y  buf→X
$15DF  35 B6                              PULS A,B,X,Y,PC        ; return from subroutine  (PULS PC = RTS)

; --------------------------------------------------------------
$15E1  34 36               Sub_15E1:      PSHS A,B,X,Y          
$15E3  30 C9 15 C5                        LEAX 5573,U           
$15E7  CC 1B 23                           LDD #$1B23             ; D=ESC+'#'  → W.OWEnd: Overlay Window End
$15EA  ED 84                              STD ,X                
$15EC  86 01                              LDA #$01              
$15EE  10 8E 00 02                        LDY #$0002            
$15F2  10 3F 8A                           OS9 I$Write            ; path=A  count=Y  buf→X
$15F5  10 3F 8A                           OS9 I$Write            ; path=A  count=Y  buf→X
$15F8  35 B6                              PULS A,B,X,Y,PC        ; return from subroutine  (PULS PC = RTS)

; --------------------------------------------------------------
$15FA  34 16               Sub_15FA:      PSHS A,B,X            
$15FC  30 8D EF A7                        LEAX Dat_05A7,PC       ; X → Dat_05A7
$1600  17 FE 2E                           LBSR Sub_1431          ; call Sub_1431
$1603  4F                                 CLRA                   ; A = 0
$1604  E6 C8 5A                           LDB 90,U              
$1607  17 00 13                           LBSR Sub_161D          ; call Sub_161D
$160A  35 96                              PULS A,B,X,PC          ; return from subroutine  (PULS PC = RTS)

; --------------------------------------------------------------
$160C  34 16               Sub_160C:      PSHS A,B,X            
$160E  30 8D EF 90                        LEAX Dat_05A2,PC       ; X → Dat_05A2
$1612  17 FE 1C                           LBSR Sub_1431          ; call Sub_1431
$1615  EC C8 5B                           LDD 91,U              
$1618  17 00 02                           LBSR Sub_161D          ; call Sub_161D
$161B  35 96                              PULS A,B,X,PC          ; return from subroutine  (PULS PC = RTS)

; --------------------------------------------------------------
$161D  34 36               Sub_161D:      PSHS A,B,X,Y          
$161F  30 C9 15 C5                        LEAX 5573,U           
$1623  34 04                              PSHS B                
$1625  5F                                 CLRB                   ; B = 0
$1626  6F 85               Loc_1626:      CLR B,X               
$1628  5C                                 INCB                  
$1629  C1 05                              CMPB #$05             
$162B  25 F9                              BCS Loc_1626           ; C=1 (BLO)
$162D  35 04                              PULS B                
$162F  10 83 27 10         Loc_162F:      CMPD #$2710           
$1633  25 05                              BCS Loc_163A           ; C=1 (BLO)
$1635  83 27 10                           SUBD #$2710           
$1638  20 F5                              BRA Loc_162F          

; --------------------------------------------------------------
$163A  10 83 03 E8         Loc_163A:      CMPD #$03E8           
$163E  25 07                              BCS Loc_1647           ; C=1 (BLO)
$1640  83 03 E8                           SUBD #$03E8           
$1643  6C 84                              INC ,X                
$1645  20 F3                              BRA Loc_163A          

; --------------------------------------------------------------
$1647  10 83 00 64         Loc_1647:      CMPD #$0064           
$164B  25 07                              BCS Loc_1654           ; C=1 (BLO)
$164D  83 00 64                           SUBD #$0064           
$1650  6C 01                              INC 1,X               
$1652  20 F3                              BRA Loc_1647          

; --------------------------------------------------------------
$1654  10 83 00 0A         Loc_1654:      CMPD #$000A           
$1658  25 07                              BCS Loc_1661           ; C=1 (BLO)
$165A  83 00 0A                           SUBD #$000A           
$165D  6C 02                              INC 2,X               
$165F  20 F3                              BRA Loc_1654          

; --------------------------------------------------------------
$1661  10 83 00 01         Loc_1661:      CMPD #$0001           
$1665  25 07                              BCS Loc_166E           ; C=1 (BLO)
$1667  83 00 01                           SUBD #$0001           
$166A  6C 03                              INC 3,X               
$166C  20 F3                              BRA Loc_1661          

; --------------------------------------------------------------
$166E  C6 04               Loc_166E:      LDB #$04              
$1670  A6 84               Loc_1670:      LDA ,X                
$1672  8B 30                              ADDA #$30             
$1674  A7 80                              STA ,X+               
$1676  5A                                 DECB                  
$1677  26 F7                              BNE Loc_1670          
$1679  86 01                              LDA #$01              
$167B  30 C9 15 C5                        LEAX 5573,U           
$167F  10 8E 00 04                        LDY #$0004            
$1683  10 3F 8A                           OS9 I$Write            ; path=A  count=Y  buf→X
$1686  35 B6                              PULS A,B,X,Y,PC        ; return from subroutine  (PULS PC = RTS)

; --------------------------------------------------------------
$1688  34 36               Sub_1688:      PSHS A,B,X,Y          
$168A  8E 10 03                           LDX #$1003            
$168D  10 8E 0E A0                        LDY #$0EA0            
$1691  86 01                              LDA #$01              
$1693  C6 98                              LDB #$98              
$1695  10 3F 8E                           OS9 I$SetStt           ; path=A  subcode=B  buf→X
$1698  35 B6                              PULS A,B,X,Y,PC        ; return from subroutine  (PULS PC = RTS)

; --------------------------------------------------------------
$169A  34 36               Sub_169A:      PSHS A,B,X,Y          
$169C  8E 3F 03                           LDX #$3F03            
$169F  10 8E 0F D1                        LDY #$0FD1            
$16A3  20 EC                              BRA $1691             

; --------------------------------------------------------------
$16A5  34 32               Sub_16A5:      PSHS A,X,Y            
$16A7  30 C9 04 C7                        LEAX 1223,U           
$16AB  A6 C8 4C                           LDA 76,U              
$16AE  A7 84                              STA ,X                
$16B0  A6 C8 33                           LDA 51,U              
$16B3  10 8E 00 01                        LDY #$0001            
$16B7  10 3F 8A                           OS9 I$Write            ; path=A  count=Y  buf→X
$16BA  35 B2                              PULS A,X,Y,PC          ; return from subroutine  (PULS PC = RTS)

$16BC  86 01                                      LDA #$01
$16BE  A7 C8 4C            Loc_16BE:      STA 76,U              
$16C1  20 E2                              BRA Sub_16A5          

; --------------------------------------------------------------
$16C3  86 43               Sub_16C3:      LDA #$43               ; A = 'C'
$16C5  20 F7                              BRA Loc_16BE          

; --------------------------------------------------------------
$16C7  86 04               Sub_16C7:      LDA #$04              
$16C9  20 F3                              BRA Loc_16BE          

; --------------------------------------------------------------
$16CB  86 06               Sub_16CB:      LDA #$06              
$16CD  20 EF                              BRA Loc_16BE          

; --------------------------------------------------------------
$16CF  86 15               Sub_16CF:      LDA #$15              
$16D1  20 EB                              BRA Loc_16BE          

$16D3  86 18                                      LDA #$18
$16D5  20 E7                                      BRA Loc_16BE
$16D7  34 16               Sub_16D7:      PSHS A,B,X            
$16D9  C6 1D                              LDB #$1D              
$16DB  A6 C8 33                           LDA 51,U              
$16DE  10 3F 8E                           OS9 I$SetStt           ; path=A  subcode=B  buf→X
$16E1  24 0C                              BCC Loc_16EF           ; C=0 (BHS)
$16E3  AE 4B                              LDX 11,U              
$16E5  A6 02                              LDA 2,X               
$16E7  8A 0C                              ORA #$0C              
$16E9  A7 02                              STA 2,X               
$16EB  94 F3                              ANDA <$F3             
$16ED  A7 02                              STA 2,X               
$16EF  35 96               Loc_16EF:      PULS A,B,X,PC          ; return from subroutine  (PULS PC = RTS)

; --------------------------------------------------------------
$16F1  34 36               Sub_16F1:      PSHS A,B,X,Y          
$16F3  30 8D ED 33                        LEAX Dat_042A,PC       ; X → Dat_042A
$16F7  17 FD 37                           LBSR Sub_1431          ; call Sub_1431
$16FA  CC 1E 03                           LDD #$1E03            
$16FD  ED C9 0E 57                        STD 3671,U            
$1701  CC 12 03                           LDD #$1203            
$1704  ED C9 0E 59                        STD 3673,U            
$1708  17 FE 80                           LBSR Sub_158B          ; call Sub_158B
$170B  30 8D EE 9D                        LEAX Dat_05AC,PC       ; X → Dat_05AC
$170F  17 FD 1F                           LBSR Sub_1431          ; call Sub_1431
$1712  E6 C9 0E 6D                        LDB 3693,U            
$1716  C4 07                              ANDB #$07             
$1718  E7 C9 0E 4C         Loc_1718:      STB 3660,U            
$171C  30 8D EC 18                        LEAX Dat_0338,PC       ; X → Dat_0338
$1720  10 8E 00 05                        LDY #$0005            
$1724  86 01                              LDA #$01              
$1726  10 3F 8A                           OS9 I$Write            ; path=A  count=Y  buf→X
$1729  30 8D EE 94                        LEAX Dat_05C1,PC       ; X → Dat_05C1
$172D  86 05                              LDA #$05              
$172F  E6 C9 0E 4C                        LDB 3660,U            
$1733  3D                                 MUL                    ; D = A×B unsigned
$1734  30 8B                              LEAX D,X              
$1736  86 01                              LDA #$01              
$1738  10 8E 00 05                        LDY #$0005            
$173C  10 3F 8A                           OS9 I$Write            ; path=A  count=Y  buf→X
$173F  17 0A D2            Loc_173F:      LBSR Sub_2214          ; call Sub_2214
$1742  81 0D                              CMPA #$0D              ; compare A with CR
$1744  27 17                              BEQ Loc_175D          
$1746  81 05                              CMPA #$05             
$1748  27 13                              BEQ Loc_175D          
$174A  81 20                              CMPA #$20              ; compare A with ' '
$174C  26 F1                              BNE Loc_173F          
$174E  6C C9 0E 4C                        INC 3660,U            
$1752  E6 C9 0E 4C                        LDB 3660,U            
$1756  C1 08                              CMPB #$08              ; compare B with BS
$1758  26 BE                              BNE Loc_1718          
$175A  5F                                 CLRB                   ; B = 0
$175B  20 BB                              BRA Loc_1718          

; --------------------------------------------------------------
$175D  E6 C9 0E 6D         Loc_175D:      LDB 3693,U            
$1761  C4 F8                              ANDB #$F8             
$1763  EA C9 0E 4C                        ORB 3660,U            
$1767  E7 C9 0E 6D                        STB 3693,U            
$176B  17 FE 73                           LBSR Sub_15E1          ; call Sub_15E1
$176E  17 F6 8E                           LBSR Sub_0DFF          ; call Sub_0DFF
$1771  30 8D EC B1                        LEAX Dat_0426,PC       ; X → Dat_0426
$1775  17 FC B9                           LBSR Sub_1431          ; call Sub_1431
$1778  35 B6                              PULS A,B,X,Y,PC        ; return from subroutine  (PULS PC = RTS)

; --------------------------------------------------------------
$177A  34 32               Sub_177A:      PSHS A,X,Y            
$177C  E7 C9 0E 4C                        STB 3660,U            
$1780  30 C9 15 C5                        LEAX 5573,U           
$1784  CC 1B 25                           LDD #$1B25             ; D=ESC+'%'  → W.CWArea: Change Working Area
$1787  ED 84                              STD ,X                
$1789  CC 01 02                           LDD #$0102            
$178C  ED 02                              STD 2,X               
$178E  86 04                              LDA #$04              
$1790  E6 C9 15 BA                        LDB 5562,U            
$1794  5C                                 INCB                  
$1795  ED 04                              STD 4,X               
$1797  86 01                              LDA #$01              
$1799  10 8E 00 06                        LDY #$0006            
$179D  10 3F 8A                           OS9 I$Write            ; path=A  count=Y  buf→X
$17A0  E6 C9 0E 4C                        LDB 3660,U            
$17A4  4F                  Loc_17A4:      CLRA                   ; A = 0
$17A5  5C                                 INCB                  
$17A6  1F 02                              TFR D,Y               
$17A8  30 8D EE 4B                        LEAX Dat_05F7,PC       ; X → Dat_05F7
$17AC  86 01                              LDA #$01              
$17AE  10 3F 8A                           OS9 I$Write            ; path=A  count=Y  buf→X
$17B1  30 8D EE 4D                        LEAX Dat_0602,PC       ; X → Dat_0602
$17B5  10 8E 00 03                        LDY #$0003            
$17B9  10 3F 8A                           OS9 I$Write            ; path=A  count=Y  buf→X
$17BC  17 0A 5E            Loc_17BC:      LBSR Sub_221D          ; call Sub_221D
$17BF  81 0A                              CMPA #$0A              ; compare A with LF
$17C1  27 12                              BEQ Loc_17D5          
$17C3  81 0C                              CMPA #$0C              ; compare A with FF
$17C5  27 20                              BEQ Loc_17E7          
$17C7  81 20                              CMPA #$20              ; compare A with ' '
$17C9  27 2A                              BEQ Loc_17F5          
$17CB  81 05                              CMPA #$05             
$17CD  27 2C                              BEQ Loc_17FB          
$17CF  81 0D                              CMPA #$0D              ; compare A with CR
$17D1  27 28                              BEQ Loc_17FB          
$17D3  20 E7                              BRA Loc_17BC          

; --------------------------------------------------------------
$17D5  E6 C9 0E 4C         Loc_17D5:      LDB 3660,U            
$17D9  5C                                 INCB                  
$17DA  E1 C9 15 BA                        CMPB 5562,U           
$17DE  25 01                              BCS Loc_17E1           ; C=1 (BLO)
$17E0  5F                                 CLRB                   ; B = 0
$17E1  E7 C9 0E 4C         Loc_17E1:      STB 3660,U            
$17E5  20 BD                              BRA Loc_17A4          

; --------------------------------------------------------------
$17E7  E6 C9 0E 4C         Loc_17E7:      LDB 3660,U            
$17EB  5A                                 DECB                  
$17EC  2A 05                              BPL Loc_17F3          
$17EE  E6 C9 15 BA                        LDB 5562,U            
$17F2  5A                                 DECB                  
$17F3  20 EC               Loc_17F3:      BRA Loc_17E1          

; --------------------------------------------------------------
$17F5  E6 C9 0E 4C         Loc_17F5:      LDB 3660,U            
$17F9  35 B2               Loc_17F9:      PULS A,X,Y,PC          ; return from subroutine  (PULS PC = RTS)

; --------------------------------------------------------------
$17FB  E6 C9 15 BA         Loc_17FB:      LDB 5562,U            
$17FF  5C                                 INCB                  
$1800  E7 C9 0E 4C                        STB 3660,U            
$1804  20 F3                              BRA Loc_17F9          

; --------------------------------------------------------------
$1806  34 36               Sub_1806:      PSHS A,B,X,Y          
$1808  30 8D EC 1E                        LEAX Dat_042A,PC       ; X → Dat_042A
$180C  17 FC 22                           LBSR Sub_1431          ; call Sub_1431
$180F  CC 1C 03                           LDD #$1C03            
$1812  ED C9 0E 57                        STD 3671,U            
$1816  CC 17 03                           LDD #$1703            
$1819  ED C9 0E 59                        STD 3673,U            
$181D  17 FD 6B                           LBSR Sub_158B          ; call Sub_158B
$1820  30 8D ED E9                        LEAX Dat_060D,PC       ; X → Dat_060D
$1824  17 FC 0A                           LBSR Sub_1431          ; call Sub_1431
$1827  E6 C9 0E 6E                        LDB 3694,U            
$182B  E7 C9 0E 4C         Loc_182B:      STB 3660,U            
$182F  30 8D EB 05                        LEAX Dat_0338,PC       ; X → Dat_0338
$1833  86 01                              LDA #$01              
$1835  10 8E 00 05                        LDY #$0005            
$1839  10 3F 8A                           OS9 I$Write            ; path=A  count=Y  buf→X
$183C  30 8D ED E7                        LEAX Dat_0627,PC       ; X → Dat_0627
$1840  86 05                              LDA #$05              
$1842  E6 C9 0E 4C                        LDB 3660,U            
$1846  3D                                 MUL                    ; D = A×B unsigned
$1847  30 8B                              LEAX D,X              
$1849  10 8E 00 05                        LDY #$0005            
$184D  86 01                              LDA #$01              
$184F  10 3F 8A                           OS9 I$Write            ; path=A  count=Y  buf→X
$1852  17 09 BF            Loc_1852:      LBSR Sub_2214          ; call Sub_2214
$1855  81 0D                              CMPA #$0D              ; compare A with CR
$1857  27 17                              BEQ Loc_1870          
$1859  81 05                              CMPA #$05             
$185B  27 13                              BEQ Loc_1870          
$185D  81 20                              CMPA #$20              ; compare A with ' '
$185F  26 F1                              BNE Loc_1852          
$1861  6C C9 0E 4C                        INC 3660,U            
$1865  E6 C9 0E 4C                        LDB 3660,U            
$1869  C1 03                              CMPB #$03             
$186B  26 BE                              BNE Loc_182B          
$186D  5F                                 CLRB                   ; B = 0
$186E  20 BB                              BRA Loc_182B          

; --------------------------------------------------------------
$1870  E6 C9 0E 4C         Loc_1870:      LDB 3660,U            
$1874  E7 C9 0E 6E                        STB 3694,U            
$1878  17 FC 7C                           LBSR Sub_14F7          ; call Sub_14F7
$187B  17 FD 63                           LBSR Sub_15E1          ; call Sub_15E1
$187E  17 FC E7                           LBSR Sub_1568          ; call Sub_1568
$1881  17 00 09                           LBSR Sub_188D          ; call Sub_188D
$1884  30 8D EB 9E                        LEAX Dat_0426,PC       ; X → Dat_0426
$1888  17 FB A6                           LBSR Sub_1431          ; call Sub_1431
$188B  35 B6                              PULS A,B,X,Y,PC        ; return from subroutine  (PULS PC = RTS)

; --------------------------------------------------------------
$188D  34 02               Sub_188D:      PSHS A                
$188F  86 0C                              LDA #$0C               ; A = FF
$1891  8D 02                              BSR Sub_1895           ; call Sub_1895
$1893  35 82                              PULS A,PC              ; return from subroutine  (PULS PC = RTS)

; --------------------------------------------------------------
$1895  34 36               Sub_1895:      PSHS A,B,X,Y          
$1897  30 C9 15 C5                        LEAX 5573,U           
$189B  A7 84                              STA ,X                
$189D  10 8E 00 01                        LDY #$0001            
$18A1  86 01                              LDA #$01              
$18A3  10 3F 8A                           OS9 I$Write            ; path=A  count=Y  buf→X
$18A6  35 B6                              PULS A,B,X,Y,PC        ; return from subroutine  (PULS PC = RTS)

; --------------------------------------------------------------
$18A8  34 36               Sub_18A8:      PSHS A,B,X,Y          
$18AA  30 8D EB 7C                        LEAX Dat_042A,PC       ; X → Dat_042A
$18AE  17 FB 80                           LBSR Sub_1431          ; call Sub_1431
$18B1  CC 1F 03                           LDD #$1F03            
$18B4  ED C9 0E 57                        STD 3671,U            
$18B8  CC 15 0A                           LDD #$150A            
$18BB  ED C9 0E 59                        STD 3673,U            
$18BF  17 FC C9                           LBSR Sub_158B          ; call Sub_158B
$18C2  30 8D ED DD                        LEAX Dat_06A3,PC       ; X → Dat_06A3
$18C6  17 FB 68                           LBSR Sub_1431          ; call Sub_1431
$18C9  17 01 21                           LBSR Sub_19ED          ; call Sub_19ED
$18CC  17 01 4B                           LBSR Sub_1A1A          ; call Sub_1A1A
$18CF  17 01 38                           LBSR Sub_1A0A          ; call Sub_1A0A
$18D2  17 01 C6                           LBSR Sub_1A9B          ; call Sub_1A9B
$18D5  17 01 62                           LBSR Sub_1A3A          ; call Sub_1A3A
$18D8  17 01 A4                           LBSR Sub_1A7F          ; call Sub_1A7F
$18DB  17 01 4C                           LBSR Sub_1A2A          ; call Sub_1A2A
$18DE  86 07                              LDA #$07              
$18E0  A7 C9 15 BA                        STA 5562,U            
$18E4  5F                                 CLRB                   ; B = 0
$18E5  17 FE 92            Loc_18E5:      LBSR Sub_177A          ; call Sub_177A
$18E8  30 C9 15 C5                        LEAX 5573,U           
$18EC  CC 1B 25                           LDD #$1B25             ; D=ESC+'%'  → W.CWArea: Change Working Area
$18EF  ED 84                              STD ,X                
$18F1  CC 00 00                           LDD #$0000            
$18F4  ED 02                              STD 2,X               
$18F6  CC 15 0A                           LDD #$150A            
$18F9  ED 04                              STD 4,X               
$18FB  10 8E 00 06                        LDY #$0006            
$18FF  86 01                              LDA #$01              
$1901  10 3F 8A                           OS9 I$Write            ; path=A  count=Y  buf→X
$1904  E6 C9 0E 4C                        LDB 3660,U            
$1908  C1 00                              CMPB #$00              ; compare B with NUL
$190A  26 10                              BNE Loc_191C          
$190C  A6 C9 0E 6F                        LDA 3695,U            
$1910  26 06                              BNE Loc_1918          
$1912  6C C9 0E 6F                        INC 3695,U            
$1916  20 04                              BRA Loc_191C          

; --------------------------------------------------------------
$1918  6F C9 0E 6F         Loc_1918:      CLR 3695,U            
$191C  17 00 CE            Loc_191C:      LBSR Sub_19ED          ; call Sub_19ED
$191F  C1 02                              CMPB #$02             
$1921  26 10                              BNE Loc_1933          
$1923  A6 C9 0E 71                        LDA 3697,U            
$1927  26 06                              BNE Loc_192F          
$1929  6C C9 0E 71                        INC 3697,U            
$192D  20 04                              BRA Loc_1933          

; --------------------------------------------------------------
$192F  6F C9 0E 71         Loc_192F:      CLR 3697,U            
$1933  17 00 D4            Loc_1933:      LBSR Sub_1A0A          ; call Sub_1A0A
$1936  C1 06                              CMPB #$06             
$1938  26 10                              BNE Loc_194A          
$193A  A6 C9 0E 77                        LDA 3703,U            
$193E  26 06                              BNE Loc_1946          
$1940  6C C9 0E 77                        INC 3703,U            
$1944  20 04                              BRA Loc_194A          

; --------------------------------------------------------------
$1946  6F C9 0E 77         Loc_1946:      CLR 3703,U            
$194A  17 00 DD            Loc_194A:      LBSR Sub_1A2A          ; call Sub_1A2A
$194D  17 F4 AF                           LBSR Sub_0DFF          ; call Sub_0DFF
$1950  C1 04                              CMPB #$04             
$1952  26 29                              BNE Loc_197D          
$1954  A6 C9 0E 73                        LDA 3699,U            
$1958  84 E0                              ANDA #$E0             
$195A  81 00                              CMPA #$00              ; compare A with NUL
$195C  27 24                              BEQ Loc_1982          
$195E  81 E0                              CMPA #$E0             
$1960  27 24                              BEQ Loc_1986          
$1962  8B 40                              ADDA #$40             
$1964  34 04               Loc_1964:      PSHS B                
$1966  E6 C9 0E 73                        LDB 3699,U            
$196A  C4 1F                              ANDB #$1F             
$196C  E7 C9 0E 73                        STB 3699,U            
$1970  35 04                              PULS B                
$1972  AA C9 0E 73                        ORA 3699,U            
$1976  A7 C9 0E 73                        STA 3699,U            
$197A  17 F4 82                           LBSR Sub_0DFF          ; call Sub_0DFF
$197D  17 00 BA            Loc_197D:      LBSR Sub_1A3A          ; call Sub_1A3A
$1980  20 07                              BRA Loc_1989          

; --------------------------------------------------------------
$1982  8B 20               Loc_1982:      ADDA #$20             
$1984  20 DE                              BRA Loc_1964          

; --------------------------------------------------------------
$1986  4F                  Loc_1986:      CLRA                   ; A = 0
$1987  20 DB                              BRA Loc_1964          

; --------------------------------------------------------------
$1989  C1 05               Loc_1989:      CMPB #$05             
$198B  26 16                              BNE Loc_19A3          
$198D  A6 C9 0E 6D                        LDA 3693,U            
$1991  2A 04                              BPL Loc_1997          
$1993  84 7F                              ANDA #$7F             
$1995  20 02                              BRA Loc_1999          

; --------------------------------------------------------------
$1997  8A 80               Loc_1997:      ORA #$80              
$1999  A7 C9 0E 6D         Loc_1999:      STA 3693,U            
$199D  17 F4 5F                           LBSR Sub_0DFF          ; call Sub_0DFF
$19A0  17 00 DC                           LBSR Sub_1A7F          ; call Sub_1A7F
$19A3  C1 03               Loc_19A3:      CMPB #$03             
$19A5  26 18                              BNE Loc_19BF          
$19A7  A6 C9 0E 6D                        LDA 3693,U            
$19AB  85 20                              BITA #$20             
$19AD  27 04                              BEQ Loc_19B3          
$19AF  84 DF                              ANDA #$DF             
$19B1  20 02                              BRA Loc_19B5          

; --------------------------------------------------------------
$19B3  8A 20               Loc_19B3:      ORA #$20              
$19B5  A7 C9 0E 6D         Loc_19B5:      STA 3693,U            
$19B9  17 F4 43                           LBSR Sub_0DFF          ; call Sub_0DFF
$19BC  17 00 DC                           LBSR Sub_1A9B          ; call Sub_1A9B
$19BF  C1 01               Loc_19BF:      CMPB #$01             
$19C1  26 13                              BNE Loc_19D6          
$19C3  A6 C9 0E 70                        LDA 3696,U            
$19C7  26 06                              BNE Loc_19CF          
$19C9  6C C9 0E 70                        INC 3696,U            
$19CD  20 04                              BRA Loc_19D3          

; --------------------------------------------------------------
$19CF  6F C9 0E 70         Loc_19CF:      CLR 3696,U            
$19D3  17 00 44            Loc_19D3:      LBSR Sub_1A1A          ; call Sub_1A1A
$19D6  C1 08               Loc_19D6:      CMPB #$08              ; compare B with BS
$19D8  27 07                              BEQ Loc_19E1          
$19DA  E6 C9 0E 4C                        LDB 3660,U            
$19DE  16 FF 04                           LBRA Loc_18E5         

; --------------------------------------------------------------
$19E1  17 FB FD            Loc_19E1:      LBSR Sub_15E1          ; call Sub_15E1
$19E4  30 8D EA 3E                        LEAX Dat_0426,PC       ; X → Dat_0426
$19E8  17 FA 46                           LBSR Sub_1431          ; call Sub_1431
$19EB  35 B6                              PULS A,B,X,Y,PC        ; return from subroutine  (PULS PC = RTS)

; --------------------------------------------------------------
$19ED  34 16               Sub_19ED:      PSHS A,B,X            
$19EF  CC 0A 02                           LDD #$0A02            
$19F2  17 01 01                           LBSR Sub_1AF6          ; call Sub_1AF6
$19F5  A6 C9 0E 6F                        LDA 3695,U            
$19F9  26 09                              BNE Loc_1A04          
$19FB  30 8D ED CE         Loc_19FB:      LEAX Dat_07CD,PC       ; X → Dat_07CD
$19FF  17 FA 2F            Loc_19FF:      LBSR Sub_1431          ; call Sub_1431
$1A02  35 96                              PULS A,B,X,PC          ; return from subroutine  (PULS PC = RTS)

; --------------------------------------------------------------
$1A04  30 8D ED CB         Loc_1A04:      LEAX Dat_07D3,PC       ; X → Dat_07D3
$1A08  20 F5                              BRA Loc_19FF          

; --------------------------------------------------------------
$1A0A  34 16               Sub_1A0A:      PSHS A,B,X            
$1A0C  CC 0B 04                           LDD #$0B04            
$1A0F  17 00 E4                           LBSR Sub_1AF6          ; call Sub_1AF6
$1A12  A6 C9 0E 71                        LDA 3697,U            
$1A16  26 EC                              BNE Loc_1A04          
$1A18  20 E1                              BRA Loc_19FB          

; --------------------------------------------------------------
$1A1A  34 16               Sub_1A1A:      PSHS A,B,X            
$1A1C  CC 10 03                           LDD #$1003            
$1A1F  17 00 D4                           LBSR Sub_1AF6          ; call Sub_1AF6
$1A22  A6 C9 0E 70                        LDA 3696,U            
$1A26  26 DC                              BNE Loc_1A04          
$1A28  20 D1                              BRA Loc_19FB          

; --------------------------------------------------------------
$1A2A  34 16               Sub_1A2A:      PSHS A,B,X            
$1A2C  CC 11 08                           LDD #$1108            
$1A2F  17 00 C4                           LBSR Sub_1AF6          ; call Sub_1AF6
$1A32  A6 C9 0E 77                        LDA 3703,U            
$1A36  26 CC                              BNE Loc_1A04          
$1A38  20 C1                              BRA Loc_19FB          

; --------------------------------------------------------------
$1A3A  34 36               Sub_1A3A:      PSHS A,B,X,Y          
$1A3C  CC 0C 06                           LDD #$0C06            
$1A3F  17 00 B4                           LBSR Sub_1AF6          ; call Sub_1AF6
$1A42  A6 C9 0E 73                        LDA 3699,U            
$1A46  84 E0                              ANDA #$E0             
$1A48  81 A0                              CMPA #$A0             
$1A4A  26 06                              BNE Loc_1A52          
$1A4C  30 8D ED 88                        LEAX Dat_07D8,PC       ; X → Dat_07D8
$1A50  20 22                              BRA Loc_1A74          

; --------------------------------------------------------------
$1A52  81 E0               Loc_1A52:      CMPA #$E0             
$1A54  26 06                              BNE Loc_1A5C          
$1A56  30 8D ED 83                        LEAX Dat_07DD,PC       ; X → Dat_07DD
$1A5A  20 18                              BRA Loc_1A74          

; --------------------------------------------------------------
$1A5C  81 60               Loc_1A5C:      CMPA #$60              ; compare A with '`'
$1A5E  26 06                              BNE Loc_1A66          
$1A60  30 8D ED 7E                        LEAX Dat_07E2,PC       ; X → Dat_07E2
$1A64  20 0E                              BRA Loc_1A74          

; --------------------------------------------------------------
$1A66  81 20               Loc_1A66:      CMPA #$20              ; compare A with ' '
$1A68  26 06                              BNE Loc_1A70          
$1A6A  30 8D ED 79                        LEAX Dat_07E7,PC       ; X → Dat_07E7
$1A6E  20 04                              BRA Loc_1A74          

; --------------------------------------------------------------
$1A70  30 8D ED 78         Loc_1A70:      LEAX Dat_07EC,PC       ; X → Dat_07EC
$1A74  86 01               Loc_1A74:      LDA #$01              
$1A76  10 8E 00 05                        LDY #$0005            
$1A7A  10 3F 8A                           OS9 I$Write            ; path=A  count=Y  buf→X
$1A7D  35 B6                              PULS A,B,X,Y,PC        ; return from subroutine  (PULS PC = RTS)

; --------------------------------------------------------------
$1A7F  34 16               Sub_1A7F:      PSHS A,B,X            
$1A81  CC 0F 07                           LDD #$0F07            
$1A84  17 00 6F                           LBSR Sub_1AF6          ; call Sub_1AF6
$1A87  A6 C9 0E 6D                        LDA 3693,U            
$1A8B  2A 07                              BPL Loc_1A94          
$1A8D  86 32                              LDA #$32               ; A = '2'
$1A8F  17 FE 03                           LBSR Sub_1895          ; call Sub_1895
$1A92  20 05                              BRA Loc_1A99          

; --------------------------------------------------------------
$1A94  86 31               Loc_1A94:      LDA #$31               ; A = '1'
$1A96  17 FD FC                           LBSR Sub_1895          ; call Sub_1895
$1A99  35 96               Loc_1A99:      PULS A,B,X,PC          ; return from subroutine  (PULS PC = RTS)

; --------------------------------------------------------------
$1A9B  34 16               Sub_1A9B:      PSHS A,B,X            
$1A9D  CC 11 05                           LDD #$1105            
$1AA0  17 00 53                           LBSR Sub_1AF6          ; call Sub_1AF6
$1AA3  A6 C9 0E 6D                        LDA 3693,U            
$1AA7  85 20                              BITA #$20             
$1AA9  26 04                              BNE Loc_1AAF          
$1AAB  86 38                              LDA #$38               ; A = '8'
$1AAD  20 02                              BRA Loc_1AB1          

; --------------------------------------------------------------
$1AAF  86 37               Loc_1AAF:      LDA #$37               ; A = '7'
$1AB1  17 FD E1            Loc_1AB1:      LBSR Sub_1895          ; call Sub_1895
$1AB4  35 96                              PULS A,B,X,PC          ; return from subroutine  (PULS PC = RTS)

; --------------------------------------------------------------
$1AB6  81 8C               Loc_1AB6:      CMPA #$8C             
$1AB8  26 04                              BNE Loc_1ABE          
$1ABA  86 05                              LDA #$05              
$1ABC  20 35                              BRA Loc_1AF3          

; --------------------------------------------------------------
$1ABE  81 8A               Loc_1ABE:      CMPA #$8A             
$1AC0  26 04                              BNE Loc_1AC6          
$1AC2  86 18                              LDA #$18              
$1AC4  20 2D                              BRA Loc_1AF3          

; --------------------------------------------------------------
$1AC6  81 13               Loc_1AC6:      CMPA #$13              ; compare A with XOFF
$1AC8  26 13                              BNE Loc_1ADD          
$1ACA  86 00                              LDA #$00               ; A = NUL
$1ACC  C6 27                              LDB #$27               ; B = SS.Sign  (GetStt/SetStt subcode)
$1ACE  10 3F 8D                           OS9 I$GetStt           ; path=A  subcode=B  buf→X
$1AD1  84 08                              ANDA #$08             
$1AD3  26 04                              BNE Loc_1AD9          
$1AD5  86 13                              LDA #$13               ; A = XOFF
$1AD7  20 1A                              BRA Loc_1AF3          

; --------------------------------------------------------------
$1AD9  86 12               Loc_1AD9:      LDA #$12              
$1ADB  20 16                              BRA Loc_1AF3          

; --------------------------------------------------------------
$1ADD  81 12               Loc_1ADD:      CMPA #$12             
$1ADF  26 04                              BNE Loc_1AE5          
$1AE1  86 03                              LDA #$03              
$1AE3  20 0E                              BRA Loc_1AF3          

; --------------------------------------------------------------
$1AE5  81 88               Loc_1AE5:      CMPA #$88             
$1AE7  26 04                              BNE Loc_1AED          
$1AE9  86 13                              LDA #$13               ; A = XOFF
$1AEB  20 06                              BRA Loc_1AF3          

; --------------------------------------------------------------
$1AED  81 89               Loc_1AED:      CMPA #$89             
$1AEF  26 02                              BNE Loc_1AF3          
$1AF1  86 04                              LDA #$04              
$1AF3  16 F6 8B            Loc_1AF3:      LBRA Loc_1181         

; --------------------------------------------------------------
$1AF6  34 36               Sub_1AF6:      PSHS A,B,X,Y          
$1AF8  30 C8 73                           LEAX 115,U            
$1AFB  8B 20                              ADDA #$20             
$1AFD  A7 01                              STA 1,X               
$1AFF  CB 20                              ADDB #$20             
$1B01  E7 02                              STB 2,X               
$1B03  86 02                              LDA #$02              
$1B05  A7 84                              STA ,X                
$1B07  86 00                              LDA #$00               ; A = NUL
$1B09  10 8E 00 03                        LDY #$0003            
$1B0D  10 3F 8A                           OS9 I$Write            ; path=A  count=Y  buf→X
$1B10  35 B6                              PULS A,B,X,Y,PC        ; return from subroutine  (PULS PC = RTS)

; --------------------------------------------------------------
$1B12  34 36               Sub_1B12:      PSHS A,B,X,Y          
$1B14  CC 15 04                           LDD #$1504            
$1B17  ED C9 0E 57                        STD 3671,U            
$1B1B  CC 25 07                           LDD #$2507            
$1B1E  ED C9 0E 59                        STD 3673,U            
$1B22  17 FA 66                           LBSR Sub_158B          ; call Sub_158B
$1B25  30 8D E9 C3                        LEAX Dat_04EC,PC       ; X → Dat_04EC
$1B29  17 F9 05                           LBSR Sub_1431          ; call Sub_1431
$1B2C  CC 01 02                           LDD #$0102            
$1B2F  17 FF C4                           LBSR Sub_1AF6          ; call Sub_1AF6
$1B32  86 01                              LDA #$01              
$1B34  30 C9 0E 98                        LEAX 3736,U           
$1B38  10 8E 00 20                        LDY #$0020            
$1B3C  10 3F 8C                           OS9 I$WritLn           ; path=A  buf→X
$1B3F  C6 1F                              LDB #$1F              
$1B41  30 8D EC AC                        LEAX Dat_07F1,PC       ; X → Dat_07F1
$1B45  17 F8 E9                           LBSR Sub_1431          ; call Sub_1431
$1B48  17 F9 48                           LBSR Sub_1493          ; call Sub_1493
$1B4B  17 06 B4                           LBSR Sub_2202          ; call Sub_2202
$1B4E  10 25 00 20                        LBCS Loc_1B72         
$1B52  A6 C9 09 D6                        LDA 2518,U            
$1B56  81 0D                              CMPA #$0D              ; compare A with CR
$1B58  27 18                              BEQ Loc_1B72          
$1B5A  86 03                              LDA #$03              
$1B5C  30 C9 09 D6                        LEAX 2518,U           
$1B60  10 3F 86                           OS9 I$ChgDir           ; mode=B  name→X
$1B63  25 12                              BCS Loc_1B77           ; C=1 (BLO)
$1B65  30 C9 09 D6                        LEAX 2518,U           
$1B69  31 C9 0E 98                        LEAY 3736,U           
$1B6D  C6 20                              LDB #$20               ; B = SS.ScSiz  (GetStt/SetStt subcode)
$1B6F  17 08 E3                           LBSR Sub_2455          ; call Sub_2455
$1B72  17 FA 6C            Loc_1B72:      LBSR Sub_15E1          ; call Sub_15E1
$1B75  35 B6                              PULS A,B,X,Y,PC        ; return from subroutine  (PULS PC = RTS)

; --------------------------------------------------------------
$1B77  86 07               Loc_1B77:      LDA #$07              
$1B79  17 FD 19                           LBSR Sub_1895          ; call Sub_1895
$1B7C  34 04                              PSHS B                
$1B7E  CC 0D 02                           LDD #$0D02            
$1B81  17 FF 72            Sub_1B81:      LBSR Sub_1AF6          ; call Sub_1AF6
$1B84  30 8D E8 A2                        LEAX Dat_042A,PC       ; X → Dat_042A
$1B88  17 F8 A6                           LBSR Sub_1431          ; call Sub_1431
$1B8B  35 04                              PULS B                
$1B8D  10 3F 0F                           OS9 F$PErr             ; path=A  error=B
$1B90  8E 00 3C                           LDX #$003C            
$1B93  10 3F 0A                           OS9 F$Sleep            ; ticks→X  (0=forever)
$1B96  30 8D E8 8C                        LEAX Dat_0426,PC       ; X → Dat_0426
$1B9A  17 F8 94                           LBSR Sub_1431          ; call Sub_1431
$1B9D  20 D3                              BRA Loc_1B72          

; --------------------------------------------------------------
$1B9F  34 36               Sub_1B9F:      PSHS A,B,X,Y          
$1BA1  C6 33                              LDB #$33               ; B = '3'
$1BA3  20 0A                              BRA Loc_1BAF          

; --------------------------------------------------------------
$1BA5  34 36               Sub_1BA5:      PSHS A,B,X,Y          
$1BA7  C6 34                              LDB #$34               ; B = '4'
$1BA9  20 04                              BRA Loc_1BAF          

; --------------------------------------------------------------
$1BAB  34 36               Sub_1BAB:      PSHS A,B,X,Y          
$1BAD  C6 32                              LDB #$32               ; B = '2'
$1BAF  30 C9 15 C5         Loc_1BAF:      LEAX 5573,U           
$1BB3  A7 02                              STA 2,X               
$1BB5  86 1B                              LDA #$1B               ; A = ESC
$1BB7  ED 84                              STD ,X                
$1BB9  86 01                              LDA #$01              
$1BBB  10 8E 00 03                        LDY #$0003            
$1BBF  10 3F 8A                           OS9 I$Write            ; path=A  count=Y  buf→X
$1BC2  35 B6                              PULS A,B,X,Y,PC        ; return from subroutine  (PULS PC = RTS)

; --------------------------------------------------------------
$1BC4  20 1E               Sub_1BC4:      BRA Loc_1BE4          

; --------------------------------------------------------------
$1BC6  20 1C               Sub_1BC6:      BRA Loc_1BE4          

; --------------------------------------------------------------
$1BC8  34 06               Sub_1BC8:      PSHS A,B              
$1BCA  6D C8 2E                           TST 46,U              
$1BCD  27 08                              BEQ Loc_1BD7          
$1BCF  6F C8 2E                           CLR 46,U              
$1BD2  17 FF F1                           LBSR Sub_1BC6          ; call Sub_1BC6
$1BD5  35 86               Loc_1BD5:      PULS A,B,PC            ; return from subroutine  (PULS PC = RTS)

; --------------------------------------------------------------
$1BD7  6D C8 2D            Loc_1BD7:      TST 45,U              
$1BDA  27 F9                              BEQ Loc_1BD5          
$1BDC  6C C8 2E                           INC 46,U              
$1BDF  17 FF E2                           LBSR Sub_1BC4          ; call Sub_1BC4
$1BE2  20 F1                              BRA Loc_1BD5          

; --------------------------------------------------------------
$1BE4  34 36               Loc_1BE4:      PSHS A,B,X,Y          
$1BE6  6D C8 2E                           TST 46,U              
$1BE9  26 23                              BNE Loc_1C0E          
$1BEB  31 8D EB D2                        LEAY Dat_07C1,PC       ; Y → Dat_07C1
$1BEF  30 C9 15 C5                        LEAX 5573,U           
$1BF3  34 10                              PSHS X                
$1BF5  C6 0C                              LDB #$0C               ; B = FF
$1BF7  17 08 63                           LBSR Sub_245D          ; call Sub_245D
$1BFA  35 10                              PULS X                
$1BFC  A6 C8 19                           LDA 25,U              
$1BFF  A7 07                              STA 7,X               
$1C01  A6 C8 18                           LDA 24,U              
$1C04  A7 0B                              STA 11,X              
$1C06  A6 C8 46                           LDA 70,U              
$1C09  17 F8 27                           LBSR Sub_1433          ; call Sub_1433
$1C0C  35 B6               Loc_1C0C:      PULS A,B,X,Y,PC        ; return from subroutine  (PULS PC = RTS)

; --------------------------------------------------------------
$1C0E  31 8D EB A2         Loc_1C0E:      LEAY Dat_07B4,PC       ; Y → Dat_07B4
$1C12  30 C9 15 C5                        LEAX 5573,U           
$1C16  34 10                              PSHS X                
$1C18  C6 0D                              LDB #$0D               ; B = CR
$1C1A  17 08 40                           LBSR Sub_245D          ; call Sub_245D
$1C1D  35 10                              PULS X                
$1C1F  A6 C8 18                           LDA 24,U              
$1C22  A7 09                              STA 9,X               
$1C24  A6 C8 46                           LDA 70,U              
$1C27  17 F8 09                           LBSR Sub_1433          ; call Sub_1433
$1C2A  20 E0                              BRA Loc_1C0C          

; --------------------------------------------------------------
$1C2C  34 36               Sub_1C2C:      PSHS A,B,X,Y          
$1C2E  AE C8 21                           LDX 33,U              
$1C31  5F                                 CLRB                   ; B = 0
$1C32  A6 80               Loc_1C32:      LDA ,X+               
$1C34  5C                                 INCB                  
$1C35  C1 1E                              CMPB #$1E             
$1C37  22 07                              BHI Loc_1C40          
$1C39  4D                                 TSTA                  
$1C3A  2B 04                              BMI Loc_1C40          
$1C3C  81 2E                              CMPA #$2E              ; compare A with '.'
$1C3E  26 F2                              BNE Loc_1C32          
$1C40  CB 08               Loc_1C40:      ADDB #$08             
$1C42  30 C9 15 C5                        LEAX 5573,U           
$1C46  34 04                              PSHS B                
$1C48  86 28                              LDA #$28               ; A = '('
$1C4A  A0 E0                              SUBA ,S+              
$1C4C  44                                 LSRA                  
$1C4D  8B 21                              ADDA #$21             
$1C4F  A7 01                              STA 1,X               
$1C51  CC 02 21                           LDD #$0221            
$1C54  E7 02                              STB 2,X               
$1C56  A7 84                              STA ,X                
$1C58  10 8E 00 03                        LDY #$0003            
$1C5C  86 01                              LDA #$01              
$1C5E  10 3F 8A                           OS9 I$Write            ; path=A  count=Y  buf→X
$1C61  35 B6                              PULS A,B,X,Y,PC        ; return from subroutine  (PULS PC = RTS)

; --------------------------------------------------------------
$1C63  34 36               Sub_1C63:      PSHS A,B,X,Y          
$1C65  EC C8 5B                           LDD 91,U              
$1C68  26 03                              BNE Loc_1C6D          
$1C6A  16 00 62                           LBRA Loc_1CCF         

; --------------------------------------------------------------
$1C6D  A6 C8 4A            Loc_1C6D:      LDA 74,U              
$1C70  10 AE C8 5F                        LDY 95,U              
$1C74  30 C9 04 C7                        LEAX 1223,U           
$1C78  30 03                              LEAX 3,X              
$1C7A  10 3F 89                           OS9 I$Read             ; path=A  count=Y  buf→X
$1C7D  24 09                              BCC Loc_1C88           ; C=0 (BHS)
$1C7F  10 8E 00 00                        LDY #$0000            
$1C83  6C C8 67                           INC 103,U             
$1C86  20 06                              BRA Loc_1C8E          

; --------------------------------------------------------------
$1C88  10 AC C8 5F         Loc_1C88:      CMPY 95,U             
$1C8C  27 1B                              BEQ Loc_1CA9          
$1C8E  1F 20               Loc_1C8E:      TFR Y,D               
$1C90  30 C9 04 C7                        LEAX 1223,U           
$1C94  30 03                              LEAX 3,X              
$1C96  30 8B                              LEAX D,X              
$1C98  34 06                              PSHS A,B              
$1C9A  EC C8 5F                           LDD 95,U              
$1C9D  A3 E1                              SUBD ,S++             
$1C9F  1F 02                              TFR D,Y               
$1CA1  86 1A                              LDA #$1A               ; A = SUB
$1CA3  A7 80               Loc_1CA3:      STA ,X+               
$1CA5  31 3F                              LEAY -1,Y             
$1CA7  26 FA                              BNE Loc_1CA3          
$1CA9  30 C9 04 C7         Loc_1CA9:      LEAX 1223,U           
$1CAD  EC C8 5B                           LDD 91,U              
$1CB0  E7 01                              STB 1,X               
$1CB2  53                                 COMB                  
$1CB3  E7 02                              STB 2,X               
$1CB5  EC C8 5B                           LDD 91,U              
$1CB8  27 09                              BEQ Loc_1CC3          
$1CBA  EC C8 5F                           LDD 95,U              
$1CBD  10 83 00 80                        CMPD #$0080           
$1CC1  26 06                              BNE Loc_1CC9          
$1CC3  86 01               Loc_1CC3:      LDA #$01              
$1CC5  A7 84                              STA ,X                
$1CC7  20 04                              BRA Loc_1CCD          

; --------------------------------------------------------------
$1CC9  86 02               Loc_1CC9:      LDA #$02              
$1CCB  A7 84                              STA ,X                
$1CCD  35 B6               Loc_1CCD:      PULS A,B,X,Y,PC        ; return from subroutine  (PULS PC = RTS)

; --------------------------------------------------------------
$1CCF  6D C8 71            Loc_1CCF:      TST 113,U             
$1CD2  27 10                              BEQ Loc_1CE4          
$1CD4  30 C9 04 C7                        LEAX 1223,U           
$1CD8  30 03                              LEAX 3,X              
$1CDA  C6 80                              LDB #$80              
$1CDC  6F 80               Loc_1CDC:      CLR ,X+               
$1CDE  5A                                 DECB                  
$1CDF  26 FB                              BNE Loc_1CDC          
$1CE1  16 FF C5                           LBRA Loc_1CA9         

; --------------------------------------------------------------
$1CE4  30 C9 04 C7         Loc_1CE4:      LEAX 1223,U           
$1CE8  30 03                              LEAX 3,X              
$1CEA  31 C8 77                           LEAY 119,U            
$1CED  C6 20                              LDB #$20               ; B = SS.ScSiz  (GetStt/SetStt subcode)
$1CEF  A6 A0               Loc_1CEF:      LDA ,Y+               
$1CF1  27 09                              BEQ Loc_1CFC          
$1CF3  81 0D                              CMPA #$0D              ; compare A with CR
$1CF5  27 05                              BEQ Loc_1CFC          
$1CF7  A7 80                              STA ,X+               
$1CF9  5A                                 DECB                  
$1CFA  26 F3                              BNE Loc_1CEF          
$1CFC  6F 80               Loc_1CFC:      CLR ,X+               
$1CFE  17 06 C0                           LBSR Sub_23C1          ; call Sub_23C1
$1D01  16 FF A5                           LBRA Loc_1CA9         

; --------------------------------------------------------------
$1D04  34 36               Sub_1D04:      PSHS A,B,X,Y          
$1D06  30 C9 04 C7                        LEAX 1223,U           
$1D0A  30 03                              LEAX 3,X              
$1D0C  EC C8 5F                           LDD 95,U              
$1D0F  6D C8 62                           TST 98,U              
$1D12  26 0D                              BNE Loc_1D21          
$1D14  1F 02                              TFR D,Y               
$1D16  4F                                 CLRA                   ; A = 0
$1D17  AB 80               Loc_1D17:      ADDA ,X+              
$1D19  31 3F                              LEAY -1,Y             
$1D1B  26 FA                              BNE Loc_1D17          
$1D1D  A7 84                              STA ,X                
$1D1F  35 B6               Loc_1D1F:      PULS A,B,X,Y,PC        ; return from subroutine  (PULS PC = RTS)

; --------------------------------------------------------------
$1D21  17 05 C3            Loc_1D21:      LBSR Sub_22E7          ; call Sub_22E7
$1D24  ED 84                              STD ,X                
$1D26  20 F7                              BRA Loc_1D1F          

; --------------------------------------------------------------
$1D28  34 36               Sub_1D28:      PSHS A,B,X,Y          
$1D2A  6D C8 67                           TST 103,U             
$1D2D  26 30                              BNE Loc_1D5F          
$1D2F  6D C8 67            Loc_1D2F:      TST 103,U             
$1D32  10 26 00 54                        LBNE Loc_1D8A         
$1D36  AE 62                              LDX 2,S               
$1D38  EC 44                              LDD 4,U               
$1D3A  A3 64                              SUBD 4,S              
$1D3C  83 00 10                           SUBD #$0010           
$1D3F  10 A3 48                           CMPD 8,U              
$1D42  25 1B                              BCS Loc_1D5F           ; C=1 (BLO)
$1D44  10 AE 48                           LDY 8,U               
$1D47  EC 64                              LDD 4,S               
$1D49  34 06                              PSHS A,B              
$1D4B  A6 80               Loc_1D4B:      LDA ,X+               
$1D4D  A7 A0                              STA ,Y+               
$1D4F  EC E4                              LDD ,S                
$1D51  83 00 01                           SUBD #$0001           
$1D54  ED E4                              STD ,S                
$1D56  26 F3                              BNE Loc_1D4B          
$1D58  32 62                              LEAS 2,S              
$1D5A  10 AF 48                           STY 8,U               
$1D5D  20 2B                              BRA Loc_1D8A          

; --------------------------------------------------------------
$1D5F  AE 46               Loc_1D5F:      LDX 6,U               
$1D61  EC 48                              LDD 8,U               
$1D63  A3 46                              SUBD 6,U              
$1D65  1F 02                              TFR D,Y               
$1D67  A6 C8 4A                           LDA 74,U              
$1D6A  81 FF                              CMPA #$FF             
$1D6C  27 03                              BEQ Loc_1D71          
$1D6E  10 3F 8A                           OS9 I$Write            ; path=A  count=Y  buf→X
$1D71  EC 46               Loc_1D71:      LDD 6,U               
$1D73  ED 48                              STD 8,U               
$1D75  16 FF B7                           LBRA Loc_1D2F         

; --------------------------------------------------------------
$1D78  34 36               Sub_1D78:      PSHS A,B,X,Y          
$1D7A  30 C9 13 38                        LEAX 4920,U           
$1D7E  10 8E 02 00                        LDY #$0200            
$1D82  6F 80               Loc_1D82:      CLR ,X+               
$1D84  31 3F                              LEAY -1,Y             
$1D86  26 FA                              BNE Loc_1D82          
$1D88  35 B6                              PULS A,B,X,Y,PC        ; return from subroutine  (PULS PC = RTS)

; --------------------------------------------------------------
$1D8A  35 B6               Loc_1D8A:      PULS A,B,X,Y,PC        ; return from subroutine  (PULS PC = RTS)

; --------------------------------------------------------------
$1D8C  A6 1E               Loc_1D8C:      LDA -2,X              
$1D8E  80 31                              SUBA #$31             
$1D90  81 03                              CMPA #$03             
$1D92  22 56                              BHI Loc_1DEA          
$1D94  C6 40                              LDB #$40               ; B = '@'
$1D96  3D                                 MUL                    ; D = A×B unsigned
$1D97  31 C9 14 38                        LEAY 5176,U           
$1D9B  31 AB                              LEAY D,Y              
$1D9D  C6 40                              LDB #$40               ; B = '@'
$1D9F  A6 80               Loc_1D9F:      LDA ,X+               
$1DA1  5A                                 DECB                  
$1DA2  81 0D                              CMPA #$0D              ; compare A with CR
$1DA4  27 05                              BEQ Loc_1DAB          
$1DA6  A7 A0                              STA ,Y+               
$1DA8  5D                                 TSTB                  
$1DA9  26 F4                              BNE Loc_1D9F          
$1DAB  86 0D               Loc_1DAB:      LDA #$0D               ; A = CR
$1DAD  A7 A4                              STA ,Y                
$1DAF  20 39                              BRA Loc_1DEA          

; --------------------------------------------------------------
$1DB1  A6 1E               Loc_1DB1:      LDA -2,X              
$1DB3  80 31                              SUBA #$31             
$1DB5  81 03                              CMPA #$03             
$1DB7  22 31                              BHI Loc_1DEA          
$1DB9  C6 40                              LDB #$40               ; B = '@'
$1DBB  3D                                 MUL                    ; D = A×B unsigned
$1DBC  31 C9 13 38                        LEAY 4920,U           
$1DC0  31 AB                              LEAY D,Y              
$1DC2  86 01                              LDA #$01              
$1DC4  A7 C9 0E 4A                        STA 3658,U            
$1DC8  34 10                              PSHS X                
$1DCA  30 C9 13 38                        LEAX 4920,U           
$1DCE  AF C9 15 B8                        STX 5560,U            
$1DD2  35 10                              PULS X                
$1DD4  C6 40                              LDB #$40               ; B = '@'
$1DD6  A6 80               Loc_1DD6:      LDA ,X+               
$1DD8  81 0D                              CMPA #$0D              ; compare A with CR
$1DDA  27 0B                              BEQ Loc_1DE7          
$1DDC  81 5C                              CMPA #$5C              ; compare A with '\'
$1DDE  27 0D                              BEQ Loc_1DED          
$1DE0  A7 A0               Loc_1DE0:      STA ,Y+               
$1DE2  5A                                 DECB                  
$1DE3  26 F1                              BNE Loc_1DD6          
$1DE5  20 03                              BRA Loc_1DEA          

; --------------------------------------------------------------
$1DE7  5F                  Loc_1DE7:      CLRB                   ; B = 0
$1DE8  E7 A4                              STB ,Y                
$1DEA  16 0B 4E            Loc_1DEA:      LBRA Loc_293B         

; --------------------------------------------------------------
$1DED  A6 80               Loc_1DED:      LDA ,X+               
$1DEF  80 40                              SUBA #$40             
$1DF1  20 ED                              BRA Loc_1DE0          

; --------------------------------------------------------------
$1DF3  34 36               Sub_1DF3:      PSHS A,B,X,Y          
$1DF5  E6 C9 0E 51                        LDB 3665,U            
$1DF9  10 AE C9 15 B8                     LDY 5560,U            
$1DFE  A6 80               Loc_1DFE:      LDA ,X+               
$1E00  84 7F                              ANDA #$7F             
$1E02  5A                                 DECB                  
$1E03  A1 A4                              CMPA ,Y               
$1E05  27 1C                              BEQ Loc_1E23          
$1E07  A6 C9 0E 4A                        LDA 3658,U            
$1E0B  4A                                 DECA                  
$1E0C  34 24                              PSHS B,Y              
$1E0E  C6 40                              LDB #$40               ; B = '@'
$1E10  3D                                 MUL                    ; D = A×B unsigned
$1E11  31 C9 13 38                        LEAY 4920,U           
$1E15  31 AB                              LEAY D,Y              
$1E17  10 AF C9 15 B8                     STY 5560,U            
$1E1C  35 24                              PULS B,Y              
$1E1E  5D                  Loc_1E1E:      TSTB                  
$1E1F  26 DD                              BNE Loc_1DFE          
$1E21  35 B6               Loc_1E21:      PULS A,B,X,Y,PC        ; return from subroutine  (PULS PC = RTS)

; --------------------------------------------------------------
$1E23  31 21               Loc_1E23:      LEAY 1,Y              
$1E25  10 AF C9 15 B8                     STY 5560,U            
$1E2A  6D A4                              TST ,Y                
$1E2C  26 F0                              BNE Loc_1E1E          
$1E2E  6C C9 0E 4A                        INC 3658,U            
$1E32  6C C9 0E 4B                        INC 3659,U            
$1E36  20 E9                              BRA Loc_1E21          

; --------------------------------------------------------------
$1E38  34 36               Sub_1E38:      PSHS A,B,X,Y          
$1E3A  6F C9 0E 4B                        CLR 3659,U            
$1E3E  A6 C9 0E 4A                        LDA 3658,U            
$1E42  80 02                              SUBA #$02             
$1E44  C6 40                              LDB #$40               ; B = '@'
$1E46  3D                                 MUL                    ; D = A×B unsigned
$1E47  30 C9 14 38                        LEAX 5176,U           
$1E4B  30 8B                              LEAX D,X              
$1E4D  34 10                              PSHS X                
$1E4F  5F                                 CLRB                   ; B = 0
$1E50  A6 80               Loc_1E50:      LDA ,X+               
$1E52  5C                                 INCB                  
$1E53  C1 40                              CMPB #$40              ; compare B with '@'
$1E55  10 22 00 04                        LBHI Loc_1E5D         
$1E59  81 0D                              CMPA #$0D              ; compare A with CR
$1E5B  26 F3                              BNE Loc_1E50          
$1E5D  5A                  Loc_1E5D:      DECB                  
$1E5E  4F                                 CLRA                   ; A = 0
$1E5F  35 10                              PULS X                
$1E61  5D                                 TSTB                  
$1E62  27 0D                              BEQ Loc_1E71          
$1E64  A6 80               Loc_1E64:      LDA ,X+               
$1E66  5A                                 DECB                  
$1E67  81 5C                              CMPA #$5C              ; compare A with '\'
$1E69  27 14                              BEQ Loc_1E7F          
$1E6B  17 F5 31                           LBSR Sub_139F          ; call Sub_139F
$1E6E  5D                  Loc_1E6E:      TSTB                  
$1E6F  26 F3                              BNE Loc_1E64          
$1E71  35 B6               Loc_1E71:      PULS A,B,X,Y,PC        ; return from subroutine  (PULS PC = RTS)

; --------------------------------------------------------------
$1E73  34 10               Loc_1E73:      PSHS X                
$1E75  8E 00 1E                           LDX #$001E            
$1E78  10 3F 0A                           OS9 F$Sleep            ; ticks→X  (0=forever)
$1E7B  35 10                              PULS X                
$1E7D  20 EF                              BRA Loc_1E6E          

; --------------------------------------------------------------
$1E7F  A6 80               Loc_1E7F:      LDA ,X+               
$1E81  5A                                 DECB                  
$1E82  81 5E                              CMPA #$5E              ; compare A with '^'
$1E84  27 0F                              BEQ Loc_1E95          
$1E86  81 2A                              CMPA #$2A              ; compare A with '*'
$1E88  27 E9                              BEQ Loc_1E73          
$1E8A  81 5C                              CMPA #$5C              ; compare A with '\'
$1E8C  27 02                              BEQ Loc_1E90          
$1E8E  80 40                              SUBA #$40             
$1E90  17 F5 0C            Loc_1E90:      LBSR Sub_139F          ; call Sub_139F
$1E93  20 D9                              BRA Loc_1E6E          

; --------------------------------------------------------------
$1E95  86 1B               Loc_1E95:      LDA #$1B               ; A = ESC
$1E97  20 F7                              BRA Loc_1E90          

; --------------------------------------------------------------
$1E99  34 36               Sub_1E99:      PSHS A,B,X,Y          
$1E9B  6D C8 48                           TST 72,U              
$1E9E  10 26 00 9A                        LBNE Loc_1F3C         
$1EA2  6C C8 48                           INC 72,U              
$1EA5  8D 02                              BSR Sub_1EA9           ; call Sub_1EA9
$1EA7  20 0E                              BRA Loc_1EB7          

; --------------------------------------------------------------
$1EA9  30 8D E5 57         Sub_1EA9:      LEAX Dat_0404,PC       ; X → Dat_0404
$1EAD  31 C9 15 C5                        LEAY 5573,U           
$1EB1  C6 0C                              LDB #$0C               ; B = FF
$1EB3  17 05 9F                           LBSR Sub_2455          ; call Sub_2455
$1EB6  39                                 RTS                   

; --------------------------------------------------------------
$1EB7  30 C9 15 C5         Loc_1EB7:      LEAX 5573,U           
$1EBB  A6 C8 1E                           LDA 30,U              
$1EBE  E6 C8 1F                           LDB 31,U              
$1EC1  C0 03                              SUBB #$03             
$1EC3  ED 07                              STD 7,X               
$1EC5  86 FF                              LDA #$FF              
$1EC7  A7 04                              STA 4,X               
$1EC9  A6 C8 18                           LDA 24,U              
$1ECC  E6 C8 19                           LDB 25,U              
$1ECF  ED 09                              STD 9,X               
$1ED1  86 01                              LDA #$01              
$1ED3  10 8E 00 0B                        LDY #$000B            
$1ED7  10 3F 8A                           OS9 I$Write            ; path=A  count=Y  buf→X
$1EDA  86 02                              LDA #$02              
$1EDC  30 8D E4 F9                        LEAX Dat_03D9,PC       ; X → Dat_03D9
$1EE0  10 3F 84                           OS9 I$Open             ; mode=B  name→X  → path→A
$1EE3  A7 C8 47                           STA 71,U              
$1EE6  30 C9 15 C5                        LEAX 5573,U           
$1EEA  30 02                              LEAX 2,X              
$1EEC  6F 02                              CLR 2,X               
$1EEE  A6 C8 1F                           LDA 31,U              
$1EF1  80 02                              SUBA #$02             
$1EF3  A7 04                              STA 4,X               
$1EF5  86 03                              LDA #$03              
$1EF7  A7 06                              STA 6,X               
$1EF9  A6 C8 47                           LDA 71,U              
$1EFC  10 8E 00 0F                        LDY #$000F            
$1F00  10 3F 8A                           OS9 I$Write            ; path=A  count=Y  buf→X
$1F03  30 C9 15 C5                        LEAX 5573,U           
$1F07  86 2D                              LDA #$2D               ; A = '-'
$1F09  C6 50                              LDB #$50               ; B = 'P'
$1F0B  A7 80               Loc_1F0B:      STA ,X+               
$1F0D  5A                                 DECB                  
$1F0E  26 FB                              BNE Loc_1F0B          
$1F10  30 C9 15 C5                        LEAX 5573,U           
$1F14  A6 C8 47                           LDA 71,U              
$1F17  10 8E 00 50                        LDY #$0050            
$1F1B  10 3F 8A                           OS9 I$Write            ; path=A  count=Y  buf→X
$1F1E  30 8D E9 15                        LEAX Dat_0837,PC       ; X → Dat_0837
$1F22  10 8E 00 06                        LDY #$0006            
$1F26  10 3F 8A                           OS9 I$Write            ; path=A  count=Y  buf→X
$1F29  17 01 20                           LBSR Sub_204C          ; call Sub_204C
$1F2C  30 8D E9 00                        LEAX Dat_0830,PC       ; X → Dat_0830
$1F30  A6 C8 46                           LDA 70,U              
$1F33  10 8E 00 07                        LDY #$0007            
$1F37  10 3F 8A                           OS9 I$Write            ; path=A  count=Y  buf→X
$1F3A  35 B6               Loc_1F3A:      PULS A,B,X,Y,PC        ; return from subroutine  (PULS PC = RTS)

; --------------------------------------------------------------
$1F3C  6F C8 48            Loc_1F3C:      CLR 72,U              
$1F3F  30 8D E4 CD                        LEAX Dat_0410,PC       ; X → Dat_0410
$1F43  A6 C8 47                           LDA 71,U              
$1F46  10 8E 00 02                        LDY #$0002            
$1F4A  10 3F 8A                           OS9 I$Write            ; path=A  count=Y  buf→X
$1F4D  A6 C8 47                           LDA 71,U              
$1F50  10 3F 8F                           OS9 I$Close            ; path=A
$1F53  17 FF 53                           LBSR Sub_1EA9          ; call Sub_1EA9
$1F56  30 C9 15 C5                        LEAX 5573,U           
$1F5A  A6 C8 1E                           LDA 30,U              
$1F5D  E6 C8 1F                           LDB 31,U              
$1F60  ED 07                              STD 7,X               
$1F62  86 FF                              LDA #$FF              
$1F64  A7 04                              STA 4,X               
$1F66  A6 C8 18                           LDA 24,U              
$1F69  E6 C8 19                           LDB 25,U              
$1F6C  ED 09                              STD 9,X               
$1F6E  86 01                              LDA #$01              
$1F70  10 8E 00 0B                        LDY #$000B            
$1F74  10 3F 8A                           OS9 I$Write            ; path=A  count=Y  buf→X
$1F77  30 8D E8 AE                        LEAX Dat_0829,PC       ; X → Dat_0829
$1F7B  A6 C8 46                           LDA 70,U              
$1F7E  10 8E 00 07                        LDY #$0007            
$1F82  10 3F 8A                           OS9 I$Write            ; path=A  count=Y  buf→X
$1F85  20 B3                              BRA Loc_1F3A          

; --------------------------------------------------------------
$1F87  86 00               Loc_1F87:      LDA #$00               ; A = NUL
$1F89  10 8E 00 01                        LDY #$0001            
$1F8D  30 C9 09 D6                        LEAX 2518,U           
$1F91  10 3F 89                           OS9 I$Read             ; path=A  count=Y  buf→X
$1F94  AE C8 6E                           LDX 110,U             
$1F97  A6 C9 09 D6                        LDA 2518,U            
$1F9B  81 7F                              CMPA #$7F             
$1F9D  10 22 F1 CE                        LBHI Loc_116F         
$1FA1  81 08                              CMPA #$08              ; compare A with BS
$1FA3  26 0A                              BNE Loc_1FAF          
$1FA5  30 1F                              LEAX -1,X             
$1FA7  AF C8 6E                           STX 110,U             
$1FAA  6A C8 70                           DEC 112,U             
$1FAD  20 0C                              BRA Loc_1FBB          

; --------------------------------------------------------------
$1FAF  A7 80               Loc_1FAF:      STA ,X+               
$1FB1  AF C8 6E                           STX 110,U             
$1FB4  6C C8 70                           INC 112,U             
$1FB7  81 0D                              CMPA #$0D              ; compare A with CR
$1FB9  27 05                              BEQ Loc_1FC0          
$1FBB  8D 3E               Loc_1FBB:      BSR Sub_1FFB           ; call Sub_1FFB
$1FBD  16 00 9B                           LBRA Loc_205B         

; --------------------------------------------------------------
$1FC0  86 0A               Loc_1FC0:      LDA #$0A               ; A = LF
$1FC2  A7 80                              STA ,X+               
$1FC4  E6 C8 70                           LDB 112,U             
$1FC7  6D C9 15 BD                        TST 5565,U            
$1FCB  27 04                              BEQ Loc_1FD1          
$1FCD  CB 02                              ADDB #$02             
$1FCF  20 01                              BRA Loc_1FD2          

; --------------------------------------------------------------
$1FD1  5C                  Loc_1FD1:      INCB                  
$1FD2  4F                  Loc_1FD2:      CLRA                   ; A = 0
$1FD3  1F 02                              TFR D,Y               
$1FD5  A6 C8 33                           LDA 51,U              
$1FD8  30 C9 08 D7                        LEAX 2263,U           
$1FDC  10 3F 8A                           OS9 I$Write            ; path=A  count=Y  buf→X
$1FDF  6F C8 70                           CLR 112,U             
$1FE2  30 C9 08 D7                        LEAX 2263,U           
$1FE6  AF C8 6E                           STX 110,U             
$1FE9  86 0D                              LDA #$0D               ; A = CR
$1FEB  A7 C9 09 D6                        STA 2518,U            
$1FEF  8D 0A                              BSR Sub_1FFB           ; call Sub_1FFB
$1FF1  86 0A                              LDA #$0A               ; A = LF
$1FF3  A7 C9 09 D6                        STA 2518,U            
$1FF7  8D 02                              BSR Sub_1FFB           ; call Sub_1FFB
$1FF9  20 60                              BRA Loc_205B          

; --------------------------------------------------------------
$1FFB  A6 C9 09 D6         Sub_1FFB:      LDA 2518,U            
$1FFF  81 0D                              CMPA #$0D              ; compare A with CR
$2001  26 17                              BNE Loc_201A          
$2003  CC 20 0D                           LDD #$200D            
$2006  ED C9 15 C5                        STD 5573,U            
$200A  30 C9 15 C5                        LEAX 5573,U           
$200E  A6 C8 47                           LDA 71,U              
$2011  10 8E 00 02                        LDY #$0002            
$2015  10 3F 8A                           OS9 I$Write            ; path=A  count=Y  buf→X
$2018  20 31                              BRA Loc_204B          

; --------------------------------------------------------------
$201A  81 08               Loc_201A:      CMPA #$08              ; compare A with BS
$201C  26 15                              BNE Loc_2033          
$201E  CC 20 08                           LDD #$2008            
$2021  ED C9 15 C5                        STD 5573,U            
$2025  30 C9 15 C5                        LEAX 5573,U           
$2029  A6 C8 47                           LDA 71,U              
$202C  10 8E 00 02                        LDY #$0002            
$2030  10 3F 8A                           OS9 I$Write            ; path=A  count=Y  buf→X
$2033  30 C9 09 D6         Loc_2033:      LEAX 2518,U           
$2037  10 8E 00 01                        LDY #$0001            
$203B  A6 C8 47                           LDA 71,U              
$203E  10 3F 8A                           OS9 I$Write            ; path=A  count=Y  buf→X
$2041  A6 C9 09 D6                        LDA 2518,U            
$2045  81 0D                              CMPA #$0D              ; compare A with CR
$2047  27 02                              BEQ Loc_204B          
$2049  8D 01                              BSR Sub_204C           ; call Sub_204C
$204B  39                  Loc_204B:      RTS                   

; --------------------------------------------------------------
$204C  A6 C8 47            Sub_204C:      LDA 71,U              
$204F  30 8D E3 DB                        LEAX Dat_042E,PC       ; X → Dat_042E
$2053  10 8E 00 06                        LDY #$0006            
$2057  10 3F 8A                           OS9 I$Write            ; path=A  count=Y  buf→X
$205A  39                                 RTS                   

; --------------------------------------------------------------
$205B  16 E9 B4            Loc_205B:      LBRA Loc_0A12         

; --------------------------------------------------------------
$205E  34 36               Sub_205E:      PSHS A,B,X,Y          
$2060  30 C9 00 B7                        LEAX 183,U            
$2064  30 03                              LEAX 3,X              
$2066  31 C8 77                           LEAY 119,U            
$2069  C6 20                              LDB #$20               ; B = SS.ScSiz  (GetStt/SetStt subcode)
$206B  A6 80               Loc_206B:      LDA ,X+               
$206D  4D                                 TSTA                  
$206E  26 03                              BNE Loc_2073          
$2070  CC 0D 01                           LDD #$0D01            
$2073  A7 A0               Loc_2073:      STA ,Y+               
$2075  5A                                 DECB                  
$2076  26 F3                              BNE Loc_206B          
$2078  17 00 37                           LBSR Sub_20B2          ; call Sub_20B2
$207B  30 8D E4 E7                        LEAX Dat_0566,PC       ; X → Dat_0566
$207F  17 F3 AF                           LBSR Sub_1431          ; call Sub_1431
$2082  86 01                              LDA #$01              
$2084  30 C8 77                           LEAX 119,U            
$2087  10 8E 00 20                        LDY #$0020            
$208B  10 3F 8C                           OS9 I$WritLn           ; path=A  buf→X
$208E  30 8D E3 98                        LEAX Dat_042A,PC       ; X → Dat_042A
$2092  17 F3 9C                           LBSR Sub_1431          ; call Sub_1431
$2095  30 C8 77                           LEAX 119,U            
$2098  86 02                              LDA #$02              
$209A  C6 03                              LDB #$03               ; B = SS.Reset  (GetStt/SetStt subcode)
$209C  10 3F 83                           OS9 I$Create           ; mode=B  name→X  → path→A
$209F  25 05                              BCS Loc_20A6           ; C=1 (BLO)
$20A1  A7 C8 4A                           STA 74,U              
$20A4  35 B6               Loc_20A4:      PULS A,B,X,Y,PC        ; return from subroutine  (PULS PC = RTS)

; --------------------------------------------------------------
$20A6  86 FF               Loc_20A6:      LDA #$FF              
$20A8  A7 C8 4A                           STA 74,U              
$20AB  86 0A                              LDA #$0A               ; A = LF
$20AD  A7 C8 5A                           STA 90,U              
$20B0  20 F2                              BRA Loc_20A4          

; --------------------------------------------------------------
$20B2  34 36               Sub_20B2:      PSHS A,B,X,Y          
$20B4  CC 00 00                           LDD #$0000            
$20B7  ED C8 63                           STD 99,U              
$20BA  ED C8 65                           STD 101,U             
$20BD  C6 08                              LDB #$08               ; B = BS
$20BF  A6 80               Loc_20BF:      LDA ,X+               
$20C1  81 20                              CMPA #$20              ; compare A with ' '
$20C3  27 08                              BEQ Loc_20CD          
$20C5  4D                                 TSTA                  
$20C6  27 05                              BEQ Loc_20CD          
$20C8  5A                                 DECB                  
$20C9  26 F4                              BNE Loc_20BF          
$20CB  20 2E                              BRA Loc_20FB          

; --------------------------------------------------------------
$20CD  31 C9 15 C5         Loc_20CD:      LEAY 5573,U           
$20D1  30 1F                              LEAX -1,X             
$20D3  31 27                              LEAY 7,Y              
$20D5  C6 08                              LDB #$08               ; B = BS
$20D7  A6 82               Loc_20D7:      LDA ,-X               
$20D9  27 07                              BEQ Loc_20E2          
$20DB  A7 A2                              STA ,-Y               
$20DD  5A                                 DECB                  
$20DE  C1 01                              CMPB #$01             
$20E0  26 F5                              BNE Loc_20D7          
$20E2  86 30               Loc_20E2:      LDA #$30               ; A = '0'
$20E4  A7 A2               Loc_20E4:      STA ,-Y               
$20E6  5A                                 DECB                  
$20E7  C1 01                              CMPB #$01             
$20E9  26 F9                              BNE Loc_20E4          
$20EB  31 C9 15 C5                        LEAY 5573,U           
$20EF  30 8D E7 4A                        LEAX Dat_083D,PC       ; X → Dat_083D
$20F3  5F                                 CLRB                   ; B = 0
$20F4  8D 07               Loc_20F4:      BSR Sub_20FD           ; call Sub_20FD
$20F6  5C                                 INCB                  
$20F7  C1 08                              CMPB #$08              ; compare B with BS
$20F9  26 F9                              BNE Loc_20F4          
$20FB  35 B6               Loc_20FB:      PULS A,B,X,Y,PC        ; return from subroutine  (PULS PC = RTS)

; --------------------------------------------------------------
$20FD  34 14               Sub_20FD:      PSHS B,X              
$20FF  86 04                              LDA #$04              
$2101  3D                                 MUL                    ; D = A×B unsigned
$2102  30 8B                              LEAX D,X              
$2104  E6 E4                              LDB ,S                
$2106  A6 A5                              LDA B,Y               
$2108  80 30                              SUBA #$30             
$210A  1F 89                              TFR A,B               
$210C  27 27                              BEQ Loc_2135          
$210E  34 04               Loc_210E:      PSHS B                
$2110  E6 03                              LDB 3,X               
$2112  EB C8 66                           ADDB 102,U            
$2115  E7 C8 66                           STB 102,U             
$2118  A6 02                              LDA 2,X               
$211A  A9 C8 65                           ADCA 101,U            
$211D  A7 C8 65                           STA 101,U             
$2120  E6 01                              LDB 1,X               
$2122  E9 C8 64                           ADCB 100,U            
$2125  E7 C8 64                           STB 100,U             
$2128  A6 84                              LDA ,X                
$212A  A9 C8 63                           ADCA 99,U             
$212D  A7 C8 63                           STA 99,U              
$2130  35 04                              PULS B                
$2132  5A                                 DECB                  
$2133  26 D9                              BNE Loc_210E          
$2135  35 94               Loc_2135:      PULS B,X,PC            ; return from subroutine  (PULS PC = RTS)

; --------------------------------------------------------------
$2137  34 36               Sub_2137:      PSHS A,B,X,Y          
$2139  17 EE 18                           LBSR Sub_0F54          ; call Sub_0F54
$213C  25 1D                              BCS Loc_215B           ; C=1 (BLO)
$213E  4F                                 CLRA                   ; A = 0
$213F  1F 02                              TFR D,Y               
$2141  30 C9 09 D6                        LEAX 2518,U           
$2145  86 00                              LDA #$00               ; A = NUL
$2147  10 3F 89                           OS9 I$Read             ; path=A  count=Y  buf→X
$214A  25 0F                              BCS Loc_215B           ; C=1 (BLO)
$214C  1F 20                              TFR Y,D               
$214E  30 C9 09 D6                        LEAX 2518,U           
$2152  A6 80               Loc_2152:      LDA ,X+               
$2154  81 05                              CMPA #$05             
$2156  27 06                              BEQ Loc_215E          
$2158  5A                                 DECB                  
$2159  26 F7                              BNE Loc_2152          
$215B  5F                  Loc_215B:      CLRB                   ; B = 0
$215C  35 B6                              PULS A,B,X,Y,PC        ; return from subroutine  (PULS PC = RTS)

; --------------------------------------------------------------
$215E  53                  Loc_215E:      COMB                  
$215F  35 B6                              PULS A,B,X,Y,PC        ; return from subroutine  (PULS PC = RTS)

; --------------------------------------------------------------
$2161  34 34               Sub_2161:      PSHS B,X,Y            
$2163  17 0F FE                           LBSR Sub_3164          ; call Sub_3164
$2166  17 FF CE            Loc_2166:      LBSR Sub_2137          ; call Sub_2137
$2169  25 2D                              BCS Loc_2198           ; C=1 (BLO)
$216B  A6 C8 33                           LDA 51,U              
$216E  C6 01                              LDB #$01               ; B = SS.Ready  (GetStt/SetStt subcode)
$2170  10 3F 8D                           OS9 I$GetStt           ; path=A  subcode=B  buf→X
$2173  24 09                              BCC Loc_217E           ; C=0 (BHS)
$2175  17 0F FC                           LBSR Sub_3174          ; call Sub_3174
$2178  81 3B                              CMPA #$3B              ; compare A with ';'
$217A  25 EA                              BCS Loc_2166           ; C=1 (BLO)
$217C  20 1A                              BRA Loc_2198          

; --------------------------------------------------------------
$217E  4F                  Loc_217E:      CLRA                   ; A = 0
$217F  1F 02                              TFR D,Y               
$2181  A6 C8 33                           LDA 51,U              
$2184  30 C9 00 B7                        LEAX 183,U            
$2188  10 3F 89                           OS9 I$Read             ; path=A  count=Y  buf→X
$218B  25 0E                              BCS Loc_219B           ; C=1 (BLO)
$218D  A6 C9 00 B7                        LDA 183,U             
$2191  6F C9 00 B7                        CLR 183,U             
$2195  5F                  Loc_2195:      CLRB                   ; B = 0
$2196  35 B4                              PULS B,X,Y,PC          ; return from subroutine  (PULS PC = RTS)

; --------------------------------------------------------------
$2198  53                  Loc_2198:      COMB                  
$2199  35 B4                              PULS B,X,Y,PC          ; return from subroutine  (PULS PC = RTS)

; --------------------------------------------------------------
$219B  4F                  Loc_219B:      CLRA                   ; A = 0
$219C  20 F7                              BRA Loc_2195          

; --------------------------------------------------------------
$219E  34 36               Sub_219E:      PSHS A,B,X,Y          
$21A0  30 8D E2 82                        LEAX Dat_0426,PC       ; X → Dat_0426
$21A4  17 F2 8A                           LBSR Sub_1431          ; call Sub_1431
$21A7  5F                                 CLRB                   ; B = 0
$21A8  30 C9 0A D5                        LEAX 2773,U           
$21AC  34 14               Loc_21AC:      PSHS B,X              
$21AE  8D 18                              BSR Sub_21C8           ; call Sub_21C8
$21B0  35 14                              PULS B,X              
$21B2  A6 C9 09 D6                        LDA 2518,U            
$21B6  81 0D                              CMPA #$0D              ; compare A with CR
$21B8  27 05                              BEQ Loc_21BF          
$21BA  5C                                 INCB                  
$21BB  C1 20                              CMPB #$20              ; compare B with ' '
$21BD  26 ED                              BNE Loc_21AC          
$21BF  30 8D E2 67         Loc_21BF:      LEAX Dat_042A,PC       ; X → Dat_042A
$21C3  17 F2 6B                           LBSR Sub_1431          ; call Sub_1431
$21C6  35 B6                              PULS A,B,X,Y,PC        ; return from subroutine  (PULS PC = RTS)

; --------------------------------------------------------------
$21C8  86 20               Sub_21C8:      LDA #$20               ; A = ' '
$21CA  3D                                 MUL                    ; D = A×B unsigned
$21CB  30 8B                              LEAX D,X              
$21CD  34 10                              PSHS X                
$21CF  30 8D E3 87                        LEAX Dat_055A,PC       ; X → Dat_055A
$21D3  17 F2 5B                           LBSR Sub_1431          ; call Sub_1431
$21D6  C6 1E                              LDB #$1E              
$21D8  17 F2 B8                           LBSR Sub_1493          ; call Sub_1493
$21DB  35 10                              PULS X                
$21DD  31 C9 09 D6                        LEAY 2518,U           
$21E1  C6 20                              LDB #$20               ; B = SS.ScSiz  (GetStt/SetStt subcode)
$21E3  17 02 77                           LBSR Sub_245D          ; call Sub_245D
$21E6  39                                 RTS                   

; --------------------------------------------------------------
$21E7  34 36               Sub_21E7:      PSHS A,B,X,Y          
$21E9  E6 C8 72                           LDB 114,U             
$21EC  86 20                              LDA #$20               ; A = ' '
$21EE  3D                                 MUL                    ; D = A×B unsigned
$21EF  30 C9 0A D5                        LEAX 2773,U           
$21F3  30 8B                              LEAX D,X              
$21F5  31 C8 77                           LEAY 119,U            
$21F8  C6 20                              LDB #$20               ; B = SS.ScSiz  (GetStt/SetStt subcode)
$21FA  17 02 58                           LBSR Sub_2455          ; call Sub_2455
$21FD  6C C8 72                           INC 114,U             
$2200  35 B6                              PULS A,B,X,Y,PC        ; return from subroutine  (PULS PC = RTS)

; --------------------------------------------------------------
$2202  6D C8 29            Sub_2202:      TST 41,U              
$2205  27 0B                              BEQ Loc_2212          
$2207  6F C8 29                           CLR 41,U              
$220A  17 F4 7B                           LBSR Sub_1688          ; call Sub_1688
$220D  17 F2 B5                           LBSR Sub_14C5          ; call Sub_14C5
$2210  53                                 COMB                  
$2211  39                                 RTS                   

; --------------------------------------------------------------
$2212  5F                  Loc_2212:      CLRB                   ; B = 0
$2213  39                                 RTS                   

; --------------------------------------------------------------
$2214  34 34               Sub_2214:      PSHS B,X,Y            
$2216  86 01                              LDA #$01              
$2218  A7 C8 31                           STA 49,U              
$221B  20 05                              BRA Loc_2222          

; --------------------------------------------------------------
$221D  34 34               Sub_221D:      PSHS B,X,Y            
$221F  6F C8 31                           CLR 49,U              
$2222  17 ED 2F            Loc_2222:      LBSR Sub_0F54          ; call Sub_0F54
$2225  24 08                              BCC Loc_222F           ; C=0 (BHS)
$2227  8E 00 03                           LDX #$0003            
$222A  10 3F 0A                           OS9 F$Sleep            ; ticks→X  (0=forever)
$222D  20 F3                              BRA Loc_2222          

; --------------------------------------------------------------
$222F  5D                  Loc_222F:      TSTB                  
$2230  27 F0                              BEQ Loc_2222          
$2232  30 C9 09 D6                        LEAX 2518,U           
$2236  10 8E 00 01                        LDY #$0001            
$223A  86 00                              LDA #$00               ; A = NUL
$223C  10 3F 89                           OS9 I$Read             ; path=A  count=Y  buf→X
$223F  A6 84                              LDA ,X                
$2241  6D C8 31                           TST 49,U              
$2244  26 06                              BNE Loc_224C          
$2246  81 60                              CMPA #$60              ; compare A with '`'
$2248  25 02                              BCS Loc_224C           ; C=1 (BLO)
$224A  80 20                              SUBA #$20             
$224C  35 B4               Loc_224C:      PULS B,X,Y,PC          ; return from subroutine  (PULS PC = RTS)

; --------------------------------------------------------------
$224E  30 C9 0D F6         Sub_224E:      LEAX 3574,U           
$2252  EC 88 1B                           LDD 27,X              
$2255  C3 00 04                           ADDD #$0004           
$2258  ED 4D                              STD 13,U              
$225A  86 01                              LDA #$01              
$225C  30 C9 0A D5                        LEAX 2773,U           
$2260  10 3F 18                           OS9 F$GPrDsc           ; pid=A  buf→X
$2263  30 88 40                           LEAX 64,X             
$2266  AF C9 0E 4C                        STX 3660,U            
$226A  1F 10                              TFR X,D               
$226C  AE 4D                              LDX 13,U              
$226E  10 8E 00 02                        LDY #$0002            
$2272  DF 00                              STU <$00              
$2274  33 C9 15 C5                        LEAU 5573,U           
$2278  10 3F 1B                           OS9 F$CpyMem           ; src→X  dst→Y  count=D
$227B  DE 00                              LDU <$00              
$227D  AE C9 15 C5                        LDX 5573,U            
$2281  30 0F                              LEAX 15,X             
$2283  EC C9 0E 4C                        LDD 3660,U            
$2287  10 8E 00 02                        LDY #$0002            
$228B  33 4B                              LEAU 11,U             
$228D  10 3F 1B                           OS9 F$CpyMem           ; src→X  dst→Y  count=D
$2290  DE 00                              LDU <$00              
$2292  39                                 RTS                   

; --------------------------------------------------------------
$2293  34 36               Sub_2293:      PSHS A,B,X,Y          
$2295  30 C9 15 C5                        LEAX 5573,U           
$2299  CC 02 57                           LDD #$0257            
$229C  ED 84                              STD ,X                
$229E  86 20                              LDA #$20               ; A = ' '
$22A0  A7 02                              STA 2,X               
$22A2  10 8E 00 03                        LDY #$0003            
$22A6  A6 C8 46                           LDA 70,U              
$22A9  10 3F 8A                           OS9 I$Write            ; path=A  count=Y  buf→X
$22AC  30 C8 35                           LEAX 53,U             
$22AF  5F                                 CLRB                   ; B = 0
$22B0  A6 80               Loc_22B0:      LDA ,X+               
$22B2  5C                                 INCB                  
$22B3  81 21                              CMPA #$21              ; compare A with '!'
$22B5  25 04                              BCS Loc_22BB           ; C=1 (BLO)
$22B7  C1 05                              CMPB #$05             
$22B9  25 F5                              BCS Loc_22B0           ; C=1 (BLO)
$22BB  30 C8 35            Loc_22BB:      LEAX 53,U             
$22BE  4F                                 CLRA                   ; A = 0
$22BF  1F 02                              TFR D,Y               
$22C1  A6 C8 46                           LDA 70,U              
$22C4  10 3F 8A                           OS9 I$Write            ; path=A  count=Y  buf→X
$22C7  35 B6                              PULS A,B,X,Y,PC        ; return from subroutine  (PULS PC = RTS)

; --------------------------------------------------------------
$22C9  34 16               Sub_22C9:      PSHS A,B,X            
$22CB  30 C9 00 B7                        LEAX 183,U            
$22CF  EC C8 5B                           LDD 91,U              
$22D2  E1 01                              CMPB 1,X              
$22D4  26 6C                              BNE Loc_2342          
$22D6  A6 01                              LDA 1,X               
$22D8  43                                 COMA                  
$22D9  A1 02                              CMPA 2,X              
$22DB  26 60                              BNE Loc_233D          
$22DD  30 03                              LEAX 3,X              
$22DF  EC C8 5F                           LDD 95,U              
$22E2  8D 03                              BSR Sub_22E7           ; call Sub_22E7
$22E4  16 00 49                           LBRA Loc_2330         

; --------------------------------------------------------------
$22E7  34 20               Sub_22E7:      PSHS Y                
$22E9  31 8B                              LEAY D,X              
$22EB  34 20                              PSHS Y                
$22ED  CC 00 00                           LDD #$0000            
$22F0  ED C8 50                           STD 80,U              
$22F3  A6 C8 50                           LDA 80,U              
$22F6  A8 80               Loc_22F6:      EORA ,X+              
$22F8  1F 89                              TFR A,B               
$22FA  C4 F0                              ANDB #$F0             
$22FC  84 0F                              ANDA #$0F             
$22FE  ED C8 4F                           STD 79,U              
$2301  54                                 LSRB                  
$2302  54                                 LSRB                  
$2303  54                                 LSRB                  
$2304  54                                 LSRB                  
$2305  E8 C8 4F                           EORB 79,U             
$2308  E8 C8 50                           EORB 80,U             
$230B  E7 C8 4F                           STB 79,U              
$230E  4F                                 CLRA                   ; A = 0
$230F  58                                 LSLB                  
$2310  49                                 ROLA                  
$2311  58                                 LSLB                  
$2312  49                                 ROLA                  
$2313  58                                 LSLB                  
$2314  49                                 ROLA                  
$2315  58                                 LSLB                  
$2316  49                                 ROLA                  
$2317  E7 C8 50                           STB 80,U              
$231A  58                                 LSLB                  
$231B  49                                 ROLA                  
$231C  A8 C8 50                           EORA 80,U             
$231F  A8 C8 51                           EORA 81,U             
$2322  E8 C8 4F                           EORB 79,U             
$2325  ED C8 50                           STD 80,U              
$2328  AC E4                              CMPX ,S               
$232A  25 CA                              BCS Loc_22F6           ; C=1 (BLO)
$232C  32 62                              LEAS 2,S              
$232E  35 A0                              PULS Y,PC              ; return from subroutine  (PULS PC = RTS)

; --------------------------------------------------------------
$2330  10 A3 84            Loc_2330:      CMPD ,X               
$2333  26 08                              BNE Loc_233D          
$2335  6F C8 6B            Loc_2335:      CLR 107,U             
$2338  6F C8 6A                           CLR 106,U             
$233B  35 96               Loc_233B:      PULS A,B,X,PC          ; return from subroutine  (PULS PC = RTS)

; --------------------------------------------------------------
$233D  6C C8 6B            Loc_233D:      INC 107,U             
$2340  20 F9                              BRA Loc_233B          

; --------------------------------------------------------------
$2342  E0 01               Loc_2342:      SUBB 1,X              
$2344  C1 01                              CMPB #$01             
$2346  26 F5                              BNE Loc_233D          
$2348  6C C8 6A                           INC 106,U             
$234B  20 E8                              BRA Loc_2335          

; --------------------------------------------------------------
$234D  31 8D E0 CB         Sub_234D:      LEAY Dat_041C,PC       ; Y → Dat_041C
$2351  30 C9 15 C5                        LEAX 5573,U           
$2355  34 10                              PSHS X                
$2357  C6 07                              LDB #$07              
$2359  17 01 01                           LBSR Sub_245D          ; call Sub_245D
$235C  35 10                              PULS X                
$235E  A6 C8 17                           LDA 23,U              
$2361  A7 05                              STA 5,X               
$2363  A6 C8 18                           LDA 24,U              
$2366  A7 02                              STA 2,X               
$2368  A6 C8 46                           LDA 70,U              
$236B  10 8E 00 07                        LDY #$0007            
$236F  10 3F 8A                           OS9 I$Write            ; path=A  count=Y  buf→X
$2372  6D C8 48                           TST 72,U              
$2375  27 0E                              BEQ Loc_2385          
$2377  A6 C8 46                           LDA 70,U              
$237A  30 8D E4 B2                        LEAX Dat_0830,PC       ; X → Dat_0830
$237E  10 8E 00 07                        LDY #$0007            
$2382  10 3F 8A                           OS9 I$Write            ; path=A  count=Y  buf→X
$2385  A6 C8 46            Loc_2385:      LDA 70,U              
$2388  30 8D DD 05                        LEAX Dat_0091,PC       ; X → Dat_0091
$238C  17 F0 A4                           LBSR Sub_1433          ; call Sub_1433
$238F  17 FF 01                           LBSR Sub_2293          ; call Sub_2293
$2392  17 F8 31                           LBSR Sub_1BC6          ; call Sub_1BC6
$2395  39                                 RTS                   

; --------------------------------------------------------------
$2396  6D C8 48            Sub_2396:      TST 72,U              
$2399  27 25                              BEQ Loc_23C0          
$239B  31 8D E0 7D                        LEAY Dat_041C,PC       ; Y → Dat_041C
$239F  30 C9 15 C5                        LEAX 5573,U           
$23A3  34 10                              PSHS X                
$23A5  C6 07                              LDB #$07              
$23A7  17 00 B3                           LBSR Sub_245D          ; call Sub_245D
$23AA  35 10                              PULS X                
$23AC  A6 C8 19                           LDA 25,U              
$23AF  A7 05                              STA 5,X               
$23B1  A6 C8 18                           LDA 24,U              
$23B4  A7 02                              STA 2,X               
$23B6  A6 C8 47                           LDA 71,U              
$23B9  10 8E 00 07                        LDY #$0007            
$23BD  10 3F 8A                           OS9 I$Write            ; path=A  count=Y  buf→X
$23C0  39                  Loc_23C0:      RTS                   

; --------------------------------------------------------------
$23C1  34 36               Sub_23C1:      PSHS A,B,X,Y          
$23C3  A6 C8 4A                           LDA 74,U              
$23C6  C6 02                              LDB #$02               ; B = SS.Size  (GetStt/SetStt subcode)
$23C8  34 40                              PSHS U                
$23CA  10 3F 8D                           OS9 I$GetStt           ; path=A  subcode=B  buf→X
$23CD  1F 32                              TFR U,Y               
$23CF  35 40                              PULS U                
$23D1  25 09                              BCS Loc_23DC           ; C=1 (BLO)
$23D3  AF C8 63                           STX 99,U              
$23D6  10 AF C8 65                        STY 101,U             
$23DA  20 0B                              BRA Loc_23E7          

; --------------------------------------------------------------
$23DC  CC 00 00            Loc_23DC:      LDD #$0000            
$23DF  ED C8 63                           STD 99,U              
$23E2  ED C8 65                           STD 101,U             
$23E5  20 28                              BRA Loc_240F          

; --------------------------------------------------------------
$23E7  AE 62               Loc_23E7:      LDX 2,S               
$23E9  31 8D E4 50                        LEAY Dat_083D,PC       ; Y → Dat_083D
$23ED  34 10                              PSHS X                
$23EF  86 30                              LDA #$30               ; A = '0'
$23F1  C6 07                              LDB #$07              
$23F3  A7 80               Loc_23F3:      STA ,X+               
$23F5  5A                                 DECB                  
$23F6  26 FB                              BNE Loc_23F3          
$23F8  35 10                              PULS X                
$23FA  5F                                 CLRB                   ; B = 0
$23FB  34 36               Loc_23FB:      PSHS A,B,X,Y          
$23FD  8D 12                              BSR Sub_2411           ; call Sub_2411
$23FF  35 36                              PULS A,B,X,Y          
$2401  5C                                 INCB                  
$2402  C1 08                              CMPB #$08              ; compare B with BS
$2404  26 F5                              BNE Loc_23FB          
$2406  30 07                              LEAX 7,X              
$2408  C6 80                              LDB #$80              
$240A  6F 80               Loc_240A:      CLR ,X+               
$240C  5A                                 DECB                  
$240D  26 FB                              BNE Loc_240A          
$240F  35 B6               Loc_240F:      PULS A,B,X,Y,PC        ; return from subroutine  (PULS PC = RTS)

; --------------------------------------------------------------
$2411  30 85               Sub_2411:      LEAX B,X              
$2413  86 04                              LDA #$04              
$2415  3D                                 MUL                    ; D = A×B unsigned
$2416  31 AB                              LEAY D,Y              
$2418  EC A4               Loc_2418:      LDD ,Y                
$241A  10 A3 C8 63                        CMPD 99,U             
$241E  22 34                              BHI Loc_2454          
$2420  25 08                              BCS Loc_242A           ; C=1 (BLO)
$2422  EC 22                              LDD 2,Y               
$2424  10 A3 C8 65                        CMPD 101,U            
$2428  22 2A                              BHI Loc_2454          
$242A  EC C8 63            Loc_242A:      LDD 99,U              
$242D  26 05                              BNE Loc_2434          
$242F  EC C8 65                           LDD 101,U             
$2432  27 20                              BEQ Loc_2454          
$2434  6C 84               Loc_2434:      INC ,X                
$2436  EC C8 65                           LDD 101,U             
$2439  A3 22                              SUBD 2,Y              
$243B  ED C8 65                           STD 101,U             
$243E  24 09                              BCC Loc_2449           ; C=0 (BHS)
$2440  EC C8 63                           LDD 99,U              
$2443  83 00 01                           SUBD #$0001           
$2446  ED C8 63                           STD 99,U              
$2449  EC C8 63            Loc_2449:      LDD 99,U              
$244C  A3 A4                              SUBD ,Y               
$244E  ED C8 63                           STD 99,U              
$2451  16 FF C4                           LBRA Loc_2418         

; --------------------------------------------------------------
$2454  39                  Loc_2454:      RTS                   

; --------------------------------------------------------------
$2455  A6 80               Sub_2455:      LDA ,X+               
$2457  A7 A0                              STA ,Y+               
$2459  5A                                 DECB                  
$245A  26 F9                              BNE Sub_2455          
$245C  39                                 RTS                   

; --------------------------------------------------------------
$245D  A6 A0               Sub_245D:      LDA ,Y+               
$245F  A7 80                              STA ,X+               
$2461  5A                                 DECB                  
$2462  26 F9                              BNE Sub_245D          
$2464  39                                 RTS                   

; --------------------------------------------------------------
$2465  34 12               Sub_2465:      PSHS A,X              
$2467  AE 4B                              LDX 11,U              
$2469  A6 01                              LDA 1,X               
$246B  84 20                              ANDA #$20             
$246D  27 03                              BEQ Loc_2472          
$246F  5F                                 CLRB                   ; B = 0
$2470  35 92               Loc_2470:      PULS A,X,PC            ; return from subroutine  (PULS PC = RTS)

; --------------------------------------------------------------
$2472  53                  Loc_2472:      COMB                  
$2473  20 FB                              BRA Loc_2470          

; --------------------------------------------------------------
$2475  34 16               Sub_2475:      PSHS A,B,X            
$2477  8E 00 03                           LDX #$0003            
$247A  10 3F 0A                           OS9 F$Sleep            ; ticks→X  (0=forever)
$247D  C6 01                              LDB #$01               ; B = SS.Ready  (GetStt/SetStt subcode)
$247F  A6 C8 33                           LDA 51,U              
$2482  10 3F 8D                           OS9 I$GetStt           ; path=A  subcode=B  buf→X
$2485  25 1C                              BCS Loc_24A3           ; C=1 (BLO)
$2487  8E 00 15                           LDX #$0015            
$248A  10 3F 0A                           OS9 F$Sleep            ; ticks→X  (0=forever)
$248D  A6 C8 33                           LDA 51,U              
$2490  C6 01                              LDB #$01               ; B = SS.Ready  (GetStt/SetStt subcode)
$2492  10 3F 8D                           OS9 I$GetStt           ; path=A  subcode=B  buf→X
$2495  4F                                 CLRA                   ; A = 0
$2496  1F 02                              TFR D,Y               
$2498  30 C9 15 C5                        LEAX 5573,U           
$249C  A6 C8 33                           LDA 51,U              
$249F  10 3F 89                           OS9 I$Read             ; path=A  count=Y  buf→X
$24A2  5F                                 CLRB                   ; B = 0
$24A3  35 96               Loc_24A3:      PULS A,B,X,PC          ; return from subroutine  (PULS PC = RTS)

; --------------------------------------------------------------
$24A5  C6 10               Sub_24A5:      LDB #$10              
$24A7  A6 80               Loc_24A7:      LDA ,X+               
$24A9  5A                                 DECB                  
$24AA  26 04                              BNE Loc_24B0          
$24AC  C6 01                              LDB #$01               ; B = SS.Ready  (GetStt/SetStt subcode)
$24AE  20 3C                              BRA Loc_24EC          

; --------------------------------------------------------------
$24B0  81 30               Loc_24B0:      CMPA #$30              ; compare A with '0'
$24B2  25 F3                              BCS Loc_24A7           ; C=1 (BLO)
$24B4  81 39                              CMPA #$39              ; compare A with '9'
$24B6  22 EF                              BHI Loc_24A7          
$24B8  1F 12                              TFR X,Y               
$24BA  31 3F                              LEAY -1,Y             
$24BC  A6 80               Loc_24BC:      LDA ,X+               
$24BE  81 30                              CMPA #$30              ; compare A with '0'
$24C0  25 06                              BCS Loc_24C8           ; C=1 (BLO)
$24C2  81 39                              CMPA #$39              ; compare A with '9'
$24C4  22 02                              BHI Loc_24C8          
$24C6  20 F4                              BRA Loc_24BC          

; --------------------------------------------------------------
$24C8  30 1F               Loc_24C8:      LEAX -1,X             
$24CA  CC 20 20                           LDD #$2020            
$24CD  ED 84                              STD ,X                
$24CF  86 A0                              LDA #$A0              
$24D1  A7 24                              STA 4,Y               
$24D3  30 8D E0 EA                        LEAX Dat_05C1,PC       ; X → Dat_05C1
$24D7  5F                                 CLRB                   ; B = 0
$24D8  34 34               Loc_24D8:      PSHS B,X,Y            
$24DA  C6 05                              LDB #$05               ; B = SS.Pos  (GetStt/SetStt subcode)
$24DC  10 3F 11                           OS9 F$CmpNam           ; name→X  len=Y  name2→D
$24DF  35 34                              PULS B,X,Y            
$24E1  24 09                              BCC Loc_24EC           ; C=0 (BHS)
$24E3  30 05                              LEAX 5,X              
$24E5  5C                                 INCB                  
$24E6  C1 08                              CMPB #$08              ; compare B with BS
$24E8  26 EE                              BNE Loc_24D8          
$24EA  20 15                              BRA Loc_2501          

; --------------------------------------------------------------
$24EC  A6 C9 0E 6D         Loc_24EC:      LDA 3693,U            
$24F0  84 F8                              ANDA #$F8             
$24F2  A7 C9 0E 6D                        STA 3693,U            
$24F6  EA C9 0E 6D                        ORB 3693,U            
$24FA  E7 C9 0E 6D                        STB 3693,U            
$24FE  17 E8 FE                           LBSR Sub_0DFF          ; call Sub_0DFF
$2501  39                  Loc_2501:      RTS                   

; --------------------------------------------------------------
$2502  34 36               Sub_2502:      PSHS A,B,X,Y          
$2504  17 FF 6E                           LBSR Sub_2475          ; call Sub_2475
$2507  25 22                              BCS Loc_252B           ; C=1 (BLO)
$2509  30 C9 15 C5                        LEAX 5573,U           
$250D  C6 0E                              LDB #$0E              
$250F  34 14               Loc_250F:      PSHS B,X              
$2511  31 8D DD 9A                        LEAY Dat_02AF,PC       ; Y → Dat_02AF
$2515  C6 07                              LDB #$07              
$2517  10 3F 11                           OS9 F$CmpNam           ; name→X  len=Y  name2→D
$251A  35 14                              PULS B,X              
$251C  24 07                              BCC Loc_2525           ; C=0 (BHS)
$251E  30 01                              LEAX 1,X              
$2520  5A                                 DECB                  
$2521  26 EC                              BNE Loc_250F          
$2523  20 06                              BRA Loc_252B          

; --------------------------------------------------------------
$2525  17 FF 7D            Loc_2525:      LBSR Sub_24A5          ; call Sub_24A5
$2528  5F                                 CLRB                   ; B = 0
$2529  35 B6               Loc_2529:      PULS A,B,X,Y,PC        ; return from subroutine  (PULS PC = RTS)

; --------------------------------------------------------------
$252B  53                  Loc_252B:      COMB                  
$252C  20 FB                              BRA Loc_2529          

; --------------------------------------------------------------
$252E  34 36               Sub_252E:      PSHS A,B,X,Y          
$2530  30 C9 15 C5                        LEAX 5573,U           
$2534  C6 0E                              LDB #$0E              
$2536  34 14               Loc_2536:      PSHS B,X              
$2538  31 8D DD 7A                        LEAY Dat_02B6,PC       ; Y → Dat_02B6
$253C  C6 04                              LDB #$04              
$253E  10 3F 11                           OS9 F$CmpNam           ; name→X  len=Y  name2→D
$2541  35 14                              PULS B,X              
$2543  24 07                              BCC Loc_254C           ; C=0 (BHS)
$2545  30 01                              LEAX 1,X              
$2547  5A                                 DECB                  
$2548  26 EC                              BNE Loc_2536          
$254A  20 00                              BRA Loc_254C          

; --------------------------------------------------------------
$254C  35 B6               Loc_254C:      PULS A,B,X,Y,PC        ; return from subroutine  (PULS PC = RTS)

; --------------------------------------------------------------
$254E  34 76               Sub_254E:      PSHS A,B,X,Y,U        
$2550  30 8D DA AC                        LEAX Dat_0000,PC      
$2554  10 AE 02                           LDY 2,X               
$2557  AF 4F                              STX 15,U              
$2559  31 3D                              LEAY -3,Y             
$255B  10 AF C8 11                        STY 17,U              
$255F  1F 13                              TFR X,U               
$2561  1F 20                              TFR Y,D               
$2563  33 CB                              LEAU D,U              
$2565  CC FF FF                           LDD #$FFFF            
$2568  ED C4                              STD ,U                
$256A  A7 42                              STA 2,U               
$256C  10 3F 17                           OS9 F$CRC              ; buf→X  count=Y  seed=D  → CRC-24
$256F  63 C4                              COM ,U                
$2571  63 41                              COM 1,U               
$2573  63 42                              COM 2,U               
$2575  35 76                              PULS A,B,X,Y,U        
$2577  86 07                              LDA #$07              
$2579  30 8D DA 90                        LEAX Dat_000D,PC       ; X → Dat_000D
$257D  10 3F 84                           OS9 I$Open             ; mode=B  name→X  → path→A
$2580  25 0E                              BCS Loc_2590           ; C=1 (BLO)
$2582  AE 4F                              LDX 15,U              
$2584  10 AE C8 11                        LDY 17,U              
$2588  31 23                              LEAY 3,Y              
$258A  10 3F 8A                           OS9 I$Write            ; path=A  count=Y  buf→X
$258D  10 3F 8F                           OS9 I$Close            ; path=A
$2590  39                  Loc_2590:      RTS                   

; --------------------------------------------------------------
$2591  34 36               Sub_2591:      PSHS A,B,X,Y          
$2593  30 8D E2 EB                        LEAX Dat_0882,PC       ; X → Dat_0882
$2597  31 C9 0E 6D                        LEAY 3693,U           
$259B  C6 4B                              LDB #$4B               ; B = 'K'
$259D  17 FE BD                           LBSR Sub_245D          ; call Sub_245D
$25A0  CC 16 03                           LDD #$1603            
$25A3  ED C9 0E 59                        STD 3673,U            
$25A7  CC 1D 04                           LDD #$1D04            
$25AA  ED C9 0E 57                        STD 3671,U            
$25AE  17 EF DA                           LBSR Sub_158B          ; call Sub_158B
$25B1  30 8D DE 75                        LEAX Dat_042A,PC       ; X → Dat_042A
$25B5  17 EE 79                           LBSR Sub_1431          ; call Sub_1431
$25B8  30 8D E1 4E                        LEAX Dat_070A,PC       ; X → Dat_070A
$25BC  17 EE 72                           LBSR Sub_1431          ; call Sub_1431
$25BF  17 FF 8C                           LBSR Sub_254E          ; call Sub_254E
$25C2  30 8D DE 60                        LEAX Dat_0426,PC       ; X → Dat_0426
$25C6  17 EE 68                           LBSR Sub_1431          ; call Sub_1431
$25C9  17 F0 15                           LBSR Sub_15E1          ; call Sub_15E1
$25CC  35 B6                              PULS A,B,X,Y,PC        ; return from subroutine  (PULS PC = RTS)

; --------------------------------------------------------------
$25CE  34 36               Loc_25CE:      PSHS A,B,X,Y          
$25D0  17 10 0B                           LBSR Sub_35DE          ; call Sub_35DE
$25D3  30 C9 19 D5                        LEAX 6613,U           
$25D7  AF C8 21                           STX 33,U              
$25DA  6F C8 6C                           CLR 108,U             
$25DD  17 F2 AD                           LBSR Sub_188D          ; call Sub_188D
$25E0  CC 05 03                           LDD #$0503            
$25E3  ED C9 0E 57                        STD 3671,U            
$25E7  CC 44 11                           LDD #$4411            
$25EA  ED C9 0E 59                        STD 3673,U            
$25EE  17 EF 9A                           LBSR Sub_158B          ; call Sub_158B
$25F1  86 81                              LDA #$81              
$25F3  30 8D E2 96                        LEAX Dat_088D,PC       ; X → Dat_088D
$25F7  10 3F 84                           OS9 I$Open             ; mode=B  name→X  → path→A
$25FA  10 25 00 81                        LBCS Loc_267F         
$25FE  A7 C8 45                           STA 69,U              
$2601  34 40                              PSHS U                
$2603  8E 00 00                           LDX #$0000            
$2606  CE 00 40                           LDU #$0040            
$2609  10 3F 88                           OS9 I$Seek             ; path=A  mode=B  offset→X:D
$260C  35 40                              PULS U                
$260E  10 25 00 6D                        LBCS Loc_267F         
$2612  A6 C8 45            Loc_2612:      LDA 69,U              
$2615  10 8E 00 20                        LDY #$0020            
$2619  30 C9 15 C5                        LEAX 5573,U           
$261D  10 3F 89                           OS9 I$Read             ; path=A  count=Y  buf→X
$2620  24 08                              BCC Loc_262A           ; C=0 (BHS)
$2622  C1 D3                              CMPB #$D3             
$2624  10 26 00 57                        LBNE Loc_267F         
$2628  20 11                              BRA Loc_263B          

; --------------------------------------------------------------
$262A  17 01 C2            Loc_262A:      LBSR Sub_27EF          ; call Sub_27EF
$262D  25 03                              BCS Loc_2632           ; C=1 (BLO)
$262F  17 00 58                           LBSR Sub_268A          ; call Sub_268A
$2632  A6 C8 6C            Loc_2632:      LDA 108,U             
$2635  81 1D                              CMPA #$1D             
$2637  22 02                              BHI Loc_263B          
$2639  20 D7                              BRA Loc_2612          

; --------------------------------------------------------------
$263B  A6 C8 6C            Loc_263B:      LDA 108,U             
$263E  A7 C9 0E 60                        STA 3680,U            
$2642  A6 C8 45                           LDA 69,U              
$2645  10 3F 8F                           OS9 I$Close            ; path=A
$2648  17 00 D0                           LBSR Sub_271B          ; call Sub_271B
$264B  6D C8 20                           TST 32,U              
$264E  27 17                              BEQ Loc_2667          
$2650  17 EE 8C                           LBSR Sub_14DF          ; call Sub_14DF
$2653  CC 00 00                           LDD #$0000            
$2656  ED C9 15 38                        STD 5432,U            
$265A  17 F2 30                           LBSR Sub_188D          ; call Sub_188D
$265D  30 8D DD C9                        LEAX Dat_042A,PC       ; X → Dat_042A
$2661  17 ED CD                           LBSR Sub_1431          ; call Sub_1431
$2664  17 01 BB                           LBSR Sub_2822          ; call Sub_2822
$2667  17 EF 77            Loc_2667:      LBSR Sub_15E1          ; call Sub_15E1
$266A  17 EE 8A                           LBSR Sub_14F7          ; call Sub_14F7
$266D  17 EE F8                           LBSR Sub_1568          ; call Sub_1568
$2670  17 F2 1A                           LBSR Sub_188D          ; call Sub_188D
$2673  30 8D DD AF                        LEAX Dat_0426,PC       ; X → Dat_0426
$2677  17 ED B7                           LBSR Sub_1431          ; call Sub_1431
$267A  35 36                              PULS A,B,X,Y          
$267C  16 E3 93                           LBRA Loc_0A12         

; --------------------------------------------------------------
$267F  10 3F 0F            Loc_267F:      OS9 F$PErr             ; path=A  error=B
$2682  8E 00 78                           LDX #$0078            
$2685  10 3F 0A                           OS9 F$Sleep            ; ticks→X  (0=forever)
$2688  20 DD                              BRA Loc_2667          

; --------------------------------------------------------------
$268A  34 36               Sub_268A:      PSHS A,B,X,Y          
$268C  30 C9 15 C5                        LEAX 5573,U           
$2690  10 AE C8 21                        LDY 33,U              
$2694  C6 1E                              LDB #$1E              
$2696  A6 80               Loc_2696:      LDA ,X+               
$2698  5A                                 DECB                  
$2699  4D                                 TSTA                  
$269A  2A 0B                              BPL Loc_26A7          
$269C  80 80                              SUBA #$80             
$269E  A7 A0                              STA ,Y+               
$26A0  CC 0A 0D                           LDD #$0A0D            
$26A3  ED A4                              STD ,Y                
$26A5  20 05                              BRA Loc_26AC          

; --------------------------------------------------------------
$26A7  A7 A0               Loc_26A7:      STA ,Y+               
$26A9  5D                                 TSTB                  
$26AA  26 EA                              BNE Loc_2696          
$26AC  6C C8 6C            Loc_26AC:      INC 108,U             
$26AF  17 00 3F                           LBSR Sub_26F1          ; call Sub_26F1
$26B2  17 00 0D                           LBSR Sub_26C2          ; call Sub_26C2
$26B5  10 AE C8 21                        LDY 33,U              
$26B9  31 A8 20                           LEAY 32,Y             
$26BC  10 AF C8 21                        STY 33,U              
$26C0  35 B6                              PULS A,B,X,Y,PC        ; return from subroutine  (PULS PC = RTS)

; --------------------------------------------------------------
$26C2  34 36               Sub_26C2:      PSHS A,B,X,Y          
$26C4  AE C8 21                           LDX 33,U              
$26C7  31 C9 15 C5                        LEAY 5573,U           
$26CB  C6 1E                              LDB #$1E              
$26CD  A6 80               Loc_26CD:      LDA ,X+               
$26CF  5A                                 DECB                  
$26D0  81 5F                              CMPA #$5F              ; compare A with '_'
$26D2  26 02                              BNE Loc_26D6          
$26D4  86 20                              LDA #$20               ; A = ' '
$26D6  81 2E               Loc_26D6:      CMPA #$2E              ; compare A with '.'
$26D8  26 03                              BNE Loc_26DD          
$26DA  86 0D                              LDA #$0D               ; A = CR
$26DC  5F                                 CLRB                   ; B = 0
$26DD  A7 A0               Loc_26DD:      STA ,Y+               
$26DF  5D                                 TSTB                  
$26E0  26 EB                              BNE Loc_26CD          
$26E2  86 01                              LDA #$01              
$26E4  10 8E 00 1E                        LDY #$001E            
$26E8  30 C9 15 C5                        LEAX 5573,U           
$26EC  10 3F 8C                           OS9 I$WritLn           ; path=A  buf→X
$26EF  35 B6                              PULS A,B,X,Y,PC        ; return from subroutine  (PULS PC = RTS)

; --------------------------------------------------------------
$26F1  34 36               Sub_26F1:      PSHS A,B,X,Y          
$26F3  30 C9 15 C5                        LEAX 5573,U           
$26F7  E6 C8 6C                           LDB 108,U             
$26FA  C1 0F                              CMPB #$0F             
$26FC  22 04                              BHI Loc_2702          
$26FE  86 24                              LDA #$24               ; A = '$'
$2700  20 04                              BRA Loc_2706          

; --------------------------------------------------------------
$2702  86 45               Loc_2702:      LDA #$45               ; A = 'E'
$2704  C0 0F                              SUBB #$0F             
$2706  A7 01               Loc_2706:      STA 1,X               
$2708  86 02                              LDA #$02              
$270A  A7 84                              STA ,X                
$270C  CB 20                              ADDB #$20             
$270E  E7 02                              STB 2,X               
$2710  10 8E 00 03                        LDY #$0003            
$2714  86 01                              LDA #$01              
$2716  10 3F 8A                           OS9 I$Write            ; path=A  count=Y  buf→X
$2719  35 B6                              PULS A,B,X,Y,PC        ; return from subroutine  (PULS PC = RTS)

; --------------------------------------------------------------
$271B  34 36               Sub_271B:      PSHS A,B,X,Y          
$271D  30 8D DD 09                        LEAX Dat_042A,PC       ; X → Dat_042A
$2721  17 ED 0D                           LBSR Sub_1431          ; call Sub_1431
$2724  86 01                              LDA #$01              
$2726  A7 C8 20                           STA 32,U              
$2729  30 C9 15 C5         Loc_2729:      LEAX 5573,U           
$272D  A1 C9 0E 60                        CMPA 3680,U           
$2731  23 07                              BLS Loc_273A          
$2733  A6 C9 0E 60                        LDA 3680,U            
$2737  A7 C8 20                           STA 32,U              
$273A  81 0F               Loc_273A:      CMPA #$0F             
$273C  22 04                              BHI Loc_2742          
$273E  8B 20                              ADDA #$20             
$2740  20 02                              BRA Loc_2744          

; --------------------------------------------------------------
$2742  8B 11               Loc_2742:      ADDA #$11             
$2744  A7 02               Loc_2744:      STA 2,X               
$2746  A6 C8 20                           LDA 32,U              
$2749  81 0F                              CMPA #$0F             
$274B  22 04                              BHI Loc_2751          
$274D  86 21                              LDA #$21               ; A = '!'
$274F  20 02                              BRA Loc_2753          

; --------------------------------------------------------------
$2751  86 42               Loc_2751:      LDA #$42               ; A = 'B'
$2753  A7 01               Loc_2753:      STA 1,X               
$2755  86 02                              LDA #$02              
$2757  A7 84                              STA ,X                
$2759  17 00 82                           LBSR Sub_27DE          ; call Sub_27DE
$275C  86 01                              LDA #$01              
$275E  10 8E 00 03                        LDY #$0003            
$2762  10 3F 8A                           OS9 I$Write            ; path=A  count=Y  buf→X
$2765  30 8D DE 99                        LEAX Dat_0602,PC       ; X → Dat_0602
$2769  10 8E 00 03                        LDY #$0003            
$276D  10 3F 8A                           OS9 I$Write            ; path=A  count=Y  buf→X
$2770  17 FA AA            Loc_2770:      LBSR Sub_221D          ; call Sub_221D
$2773  81 08                              CMPA #$08              ; compare A with BS
$2775  26 0F                              BNE Loc_2786          
$2777  A6 C8 20            Loc_2777:      LDA 32,U              
$277A  81 0F                              CMPA #$0F             
$277C  22 04                              BHI Loc_2782          
$277E  8B 0F                              ADDA #$0F             
$2780  20 02                              BRA Loc_2784          

; --------------------------------------------------------------
$2782  80 0F               Loc_2782:      SUBA #$0F             
$2784  20 52               Loc_2784:      BRA Loc_27D8          

; --------------------------------------------------------------
$2786  81 09               Loc_2786:      CMPA #$09             
$2788  26 02                              BNE Loc_278C          
$278A  20 EB                              BRA Loc_2777          

; --------------------------------------------------------------
$278C  81 0C               Loc_278C:      CMPA #$0C              ; compare A with FF
$278E  26 17                              BNE Loc_27A7          
$2790  A6 C8 20                           LDA 32,U              
$2793  81 01                              CMPA #$01             
$2795  27 07                              BEQ Loc_279E          
$2797  80 01                              SUBA #$01             
$2799  A7 C8 20                           STA 32,U              
$279C  20 3A                              BRA Loc_27D8          

; --------------------------------------------------------------
$279E  A6 C9 0E 60         Loc_279E:      LDA 3680,U            
$27A2  A7 C8 20                           STA 32,U              
$27A5  20 31                              BRA Loc_27D8          

; --------------------------------------------------------------
$27A7  81 0A               Loc_27A7:      CMPA #$0A              ; compare A with LF
$27A9  26 17                              BNE Loc_27C2          
$27AB  A6 C8 20                           LDA 32,U              
$27AE  A1 C9 0E 60                        CMPA 3680,U           
$27B2  27 07                              BEQ Loc_27BB          
$27B4  8B 01                              ADDA #$01             
$27B6  A7 C8 20                           STA 32,U              
$27B9  20 1D                              BRA Loc_27D8          

; --------------------------------------------------------------
$27BB  86 01               Loc_27BB:      LDA #$01              
$27BD  A7 C8 20                           STA 32,U              
$27C0  20 16                              BRA Loc_27D8          

; --------------------------------------------------------------
$27C2  81 0D               Loc_27C2:      CMPA #$0D              ; compare A with CR
$27C4  26 09                              BNE Loc_27CF          
$27C6  30 8D DC 5C         Loc_27C6:      LEAX Dat_0426,PC       ; X → Dat_0426
$27CA  17 EC 64                           LBSR Sub_1431          ; call Sub_1431
$27CD  35 B6                              PULS A,B,X,Y,PC        ; return from subroutine  (PULS PC = RTS)

; --------------------------------------------------------------
$27CF  81 05               Loc_27CF:      CMPA #$05             
$27D1  26 9D                              BNE Loc_2770          
$27D3  6F C8 20                           CLR 32,U              
$27D6  20 EE                              BRA Loc_27C6          

; --------------------------------------------------------------
$27D8  A7 C8 20            Loc_27D8:      STA 32,U              
$27DB  16 FF 4B                           LBRA Loc_2729         

; --------------------------------------------------------------
$27DE  34 32               Sub_27DE:      PSHS A,X,Y            
$27E0  86 01                              LDA #$01              
$27E2  30 8D DE 0B                        LEAX Dat_05F1,PC       ; X → Dat_05F1
$27E6  10 8E 00 06                        LDY #$0006            
$27EA  10 3F 8A                           OS9 I$Write            ; path=A  count=Y  buf→X
$27ED  35 B2                              PULS A,X,Y,PC          ; return from subroutine  (PULS PC = RTS)

; --------------------------------------------------------------
$27EF  34 36               Sub_27EF:      PSHS A,B,X,Y          
$27F1  30 C9 15 C5                        LEAX 5573,U           
$27F5  A6 84                              LDA ,X                
$27F7  27 26                              BEQ Loc_281F          
$27F9  C6 1B                              LDB #$1B               ; B = ESC
$27FB  A6 80               Loc_27FB:      LDA ,X+               
$27FD  5A                                 DECB                  
$27FE  81 2E                              CMPA #$2E              ; compare A with '.'
$2800  27 05                              BEQ Loc_2807          
$2802  5D                  Loc_2802:      TSTB                  
$2803  26 F6                              BNE Loc_27FB          
$2805  20 18                              BRA Loc_281F          

; --------------------------------------------------------------
$2807  A6 80               Loc_2807:      LDA ,X+               
$2809  5A                                 DECB                  
$280A  81 61                              CMPA #$61              ; compare A with 'a'
$280C  26 F4                              BNE Loc_2802          
$280E  A6 80                              LDA ,X+               
$2810  5A                                 DECB                  
$2811  81 64                              CMPA #$64              ; compare A with 'd'
$2813  26 ED                              BNE Loc_2802          
$2815  A6 80                              LDA ,X+               
$2817  5A                                 DECB                  
$2818  81 E6                              CMPA #$E6             
$281A  26 E6                              BNE Loc_2802          
$281C  5F                                 CLRB                   ; B = 0
$281D  35 B6               Loc_281D:      PULS A,B,X,Y,PC        ; return from subroutine  (PULS PC = RTS)

; --------------------------------------------------------------
$281F  53                  Loc_281F:      COMB                  
$2820  20 FB                              BRA Loc_281D          

; --------------------------------------------------------------
$2822  34 36               Sub_2822:      PSHS A,B,X,Y          
$2824  A6 C8 20                           LDA 32,U              
$2827  4A                                 DECA                  
$2828  C6 20                              LDB #$20               ; B = SS.ScSiz  (GetStt/SetStt subcode)
$282A  3D                                 MUL                    ; D = A×B unsigned
$282B  30 C9 19 D5                        LEAX 6613,U           
$282F  30 8B                              LEAX D,X              
$2831  AF C8 21                           STX 33,U              
$2834  34 10                              PSHS X                
$2836  30 C9 15 C5                        LEAX 5573,U           
$283A  31 8D E0 4F                        LEAY Dat_088D,PC       ; Y → Dat_088D
$283E  A6 A0               Loc_283E:      LDA ,Y+               
$2840  2B 04                              BMI Loc_2846          
$2842  A7 80                              STA ,X+               
$2844  20 F8                              BRA Loc_283E          

; --------------------------------------------------------------
$2846  80 80               Loc_2846:      SUBA #$80             
$2848  C6 2F                              LDB #$2F               ; B = '/'
$284A  ED 81                              STD ,X++              
$284C  1F 12                              TFR X,Y               
$284E  35 10                              PULS X                
$2850  C6 20                              LDB #$20               ; B = SS.ScSiz  (GetStt/SetStt subcode)
$2852  A6 80               Loc_2852:      LDA ,X+               
$2854  2B 07                              BMI Loc_285D          
$2856  A7 A0                              STA ,Y+               
$2858  5A                                 DECB                  
$2859  26 F7                              BNE Loc_2852          
$285B  20 02                              BRA Loc_285F          

; --------------------------------------------------------------
$285D  A7 A0               Loc_285D:      STA ,Y+               
$285F  30 C9 15 C5         Loc_285F:      LEAX 5573,U           
$2863  86 01                              LDA #$01              
$2865  10 3F 84                           OS9 I$Open             ; mode=B  name→X  → path→A
$2868  25 3B                              BCS Loc_28A5           ; C=1 (BLO)
$286A  A7 C8 45                           STA 69,U              
$286D  17 F5 08                           LBSR Sub_1D78          ; call Sub_1D78
$2870  86 01                              LDA #$01              
$2872  A7 C9 0F 1F                        STA 3871,U            
$2876  86 1E                              LDA #$1E              
$2878  A7 C9 0F 20                        STA 3872,U            
$287C  A6 C8 45            Loc_287C:      LDA 69,U              
$287F  30 C9 15 C5                        LEAX 5573,U           
$2883  10 8E 00 50                        LDY #$0050            
$2887  10 3F 8B                           OS9 I$ReadLn           ; path=A  max=Y  buf→X
$288A  24 06                              BCC Loc_2892           ; C=0 (BHS)
$288C  C1 D3                              CMPB #$D3             
$288E  26 15                              BNE Loc_28A5          
$2890  20 05                              BRA Loc_2897          

; --------------------------------------------------------------
$2892  17 00 15            Loc_2892:      LBSR Sub_28AA          ; call Sub_28AA
$2895  20 E5                              BRA Loc_287C          

; --------------------------------------------------------------
$2897  A6 C8 45            Loc_2897:      LDA 69,U              
$289A  10 3F 8F                           OS9 I$Close            ; path=A
$289D  17 E5 5F                           LBSR Sub_0DFF          ; call Sub_0DFF
$28A0  16 01 F3                           LBRA Loc_2A96         

; --------------------------------------------------------------
$28A3  35 B6               Loc_28A3:      PULS A,B,X,Y,PC        ; return from subroutine  (PULS PC = RTS)

; --------------------------------------------------------------
$28A5  10 3F 0F            Loc_28A5:      OS9 F$PErr             ; path=A  error=B
$28A8  20 F9                              BRA Loc_28A3          

; --------------------------------------------------------------
$28AA  34 36               Sub_28AA:      PSHS A,B,X,Y          
$28AC  4F                                 CLRA                   ; A = 0
$28AD  31 8D DD 95                        LEAY Dat_0646,PC       ; Y → Dat_0646
$28B1  30 C9 15 C5         Loc_28B1:      LEAX 5573,U           
$28B5  C6 03                              LDB #$03               ; B = SS.Reset  (GetStt/SetStt subcode)
$28B7  4C                                 INCA                  
$28B8  10 3F 11                           OS9 F$CmpNam           ; name→X  len=Y  name2→D
$28BB  31 23                              LEAY 3,Y              
$28BD  24 04                              BCC Loc_28C3           ; C=0 (BHS)
$28BF  81 20                              CMPA #$20              ; compare A with ' '
$28C1  25 EE                              BCS Loc_28B1           ; C=1 (BLO)
$28C3  81 1F               Loc_28C3:      CMPA #$1F             
$28C5  22 74                              BHI Loc_293B          
$28C7  30 03                              LEAX 3,X              
$28C9  E6 80                              LDB ,X+               
$28CB  C1 3D                              CMPB #$3D              ; compare B with '='
$28CD  26 6C                              BNE Loc_293B          
$28CF  81 01                              CMPA #$01             
$28D1  10 27 00 68                        LBEQ Loc_293D         
$28D5  81 02                              CMPA #$02             
$28D7  10 27 00 7B                        LBEQ Loc_2956         
$28DB  81 03                              CMPA #$03             
$28DD  10 27 00 8F                        LBEQ Loc_2970         
$28E1  81 04                              CMPA #$04             
$28E3  10 27 00 98                        LBEQ Loc_297F         
$28E7  81 05                              CMPA #$05             
$28E9  10 27 00 A1                        LBEQ Loc_298E         
$28ED  81 06                              CMPA #$06             
$28EF  10 27 00 AB                        LBEQ Loc_299E         
$28F3  81 07                              CMPA #$07             
$28F5  10 27 00 B4                        LBEQ Loc_29AD         
$28F9  81 08                              CMPA #$08              ; compare A with BS
$28FB  10 27 00 B8                        LBEQ Loc_29B7         
$28FF  81 09                              CMPA #$09             
$2901  10 27 00 BC                        LBEQ Loc_29C1         
$2905  81 0A                              CMPA #$0A              ; compare A with LF
$2907  10 27 00 C0                        LBEQ Loc_29CB         
$290B  81 0B                              CMPA #$0B             
$290D  10 27 00 C4                        LBEQ Loc_29D5         
$2911  81 0C                              CMPA #$0C              ; compare A with FF
$2913  10 27 00 C8                        LBEQ Loc_29DF         
$2917  81 0D                              CMPA #$0D              ; compare A with CR
$2919  10 27 00 D1                        LBEQ Loc_29EE         
$291D  81 0E                              CMPA #$0E             
$291F  10 27 00 E3                        LBEQ Loc_2A06         
$2923  81 16                              CMPA #$16             
$2925  10 23 00 FE                        LBLS Loc_2A27         
$2929  81 17                              CMPA #$17             
$292B  10 27 01 1E                        LBEQ Loc_2A4D         
$292F  81 1B                              CMPA #$1B              ; compare A with ESC
$2931  10 23 F4 7C                        LBLS Loc_1DB1         
$2935  81 1F                              CMPA #$1F             
$2937  10 23 F4 51                        LBLS Loc_1D8C         
$293B  35 B6               Loc_293B:      PULS A,B,X,Y,PC        ; return from subroutine  (PULS PC = RTS)

; --------------------------------------------------------------
$293D  31 C9 0E F8         Loc_293D:      LEAY 3832,U           
$2941  C6 20                              LDB #$20               ; B = SS.ScSiz  (GetStt/SetStt subcode)
$2943  A6 80               Loc_2943:      LDA ,X+               
$2945  81 0D                              CMPA #$0D              ; compare A with CR
$2947  27 07                              BEQ Loc_2950          
$2949  A7 A0                              STA ,Y+               
$294B  5A                                 DECB                  
$294C  26 F5                              BNE Loc_2943          
$294E  20 04                              BRA Loc_2954          

; --------------------------------------------------------------
$2950  A7 A0               Loc_2950:      STA ,Y+               
$2952  6F A0                              CLR ,Y+               
$2954  20 E5               Loc_2954:      BRA Loc_293B          

; --------------------------------------------------------------
$2956  17 01 0D            Loc_2956:      LBSR Sub_2A66          ; call Sub_2A66
$2959  C4 07                              ANDB #$07             
$295B  A6 C9 0E 6D                        LDA 3693,U            
$295F  84 F8                              ANDA #$F8             
$2961  A7 C9 0E 6D                        STA 3693,U            
$2965  EA C9 0E 6D                        ORB 3693,U            
$2969  E7 C9 0E 6D                        STB 3693,U            
$296D  16 FF CB                           LBRA Loc_293B         

; --------------------------------------------------------------
$2970  17 00 F3            Loc_2970:      LBSR Sub_2A66          ; call Sub_2A66
$2973  5D                                 TSTB                  
$2974  27 02                              BEQ Loc_2978          
$2976  C6 01                              LDB #$01               ; B = SS.Ready  (GetStt/SetStt subcode)
$2978  E7 C9 0E 6F         Loc_2978:      STB 3695,U            
$297C  16 FF BC                           LBRA Loc_293B         

; --------------------------------------------------------------
$297F  17 00 E4            Loc_297F:      LBSR Sub_2A66          ; call Sub_2A66
$2982  5D                                 TSTB                  
$2983  27 02                              BEQ Loc_2987          
$2985  C6 01                              LDB #$01               ; B = SS.Ready  (GetStt/SetStt subcode)
$2987  E7 C9 0E 77         Loc_2987:      STB 3703,U            
$298B  16 FF AD                           LBRA Loc_293B         

; --------------------------------------------------------------
$298E  17 00 D5            Loc_298E:      LBSR Sub_2A66          ; call Sub_2A66
$2991  C1 03                              CMPB #$03             
$2993  25 02                              BCS Loc_2997           ; C=1 (BLO)
$2995  C6 02                              LDB #$02               ; B = SS.Size  (GetStt/SetStt subcode)
$2997  E7 C9 0E 6E         Loc_2997:      STB 3694,U            
$299B  16 FF 9D                           LBRA Loc_293B         

; --------------------------------------------------------------
$299E  17 00 C5            Loc_299E:      LBSR Sub_2A66          ; call Sub_2A66
$29A1  5D                                 TSTB                  
$29A2  27 02                              BEQ Loc_29A6          
$29A4  C6 01                              LDB #$01               ; B = SS.Ready  (GetStt/SetStt subcode)
$29A6  E7 C9 0E 70         Loc_29A6:      STB 3696,U            
$29AA  16 FF 8E                           LBRA Loc_293B         

; --------------------------------------------------------------
$29AD  17 00 B6            Loc_29AD:      LBSR Sub_2A66          ; call Sub_2A66
$29B0  E7 C9 0E 75                        STB 3701,U            
$29B4  16 FF 84                           LBRA Loc_293B         

; --------------------------------------------------------------
$29B7  17 00 AC            Loc_29B7:      LBSR Sub_2A66          ; call Sub_2A66
$29BA  E7 C9 0E 76                        STB 3702,U            
$29BE  16 FF 7A                           LBRA Loc_293B         

; --------------------------------------------------------------
$29C1  17 00 A2            Loc_29C1:      LBSR Sub_2A66          ; call Sub_2A66
$29C4  E7 C9 0F 1F                        STB 3871,U            
$29C8  16 FF 70                           LBRA Loc_293B         

; --------------------------------------------------------------
$29CB  17 00 98            Loc_29CB:      LBSR Sub_2A66          ; call Sub_2A66
$29CE  E7 C9 0F 20                        STB 3872,U            
$29D2  16 FF 66                           LBRA Loc_293B         

; --------------------------------------------------------------
$29D5  17 00 8E            Loc_29D5:      LBSR Sub_2A66          ; call Sub_2A66
$29D8  E7 C9 0E 73                        STB 3699,U            
$29DC  16 FF 5C                           LBRA Loc_293B         

; --------------------------------------------------------------
$29DF  17 00 84            Loc_29DF:      LBSR Sub_2A66          ; call Sub_2A66
$29E2  5D                                 TSTB                  
$29E3  27 02                              BEQ Loc_29E7          
$29E5  C6 01                              LDB #$01               ; B = SS.Ready  (GetStt/SetStt subcode)
$29E7  E7 C9 0E 71         Loc_29E7:      STB 3697,U            
$29EB  16 FF 4D                           LBRA Loc_293B         

; --------------------------------------------------------------
$29EE  17 00 75            Loc_29EE:      LBSR Sub_2A66          ; call Sub_2A66
$29F1  A6 C9 0E 6D                        LDA 3693,U            
$29F5  84 4F                              ANDA #$4F             
$29F7  A7 C9 0E 6D                        STA 3693,U            
$29FB  EA C9 0E 6D                        ORB 3693,U            
$29FF  E7 C9 0E 6D                        STB 3693,U            
$2A03  16 FF 35                           LBRA Loc_293B         

; --------------------------------------------------------------
$2A06  17 00 5D            Loc_2A06:      LBSR Sub_2A66          ; call Sub_2A66
$2A09  5D                                 TSTB                  
$2A0A  27 07                              BEQ Loc_2A13          
$2A0C  C1 80                              CMPB #$80             
$2A0E  27 03                              BEQ Loc_2A13          
$2A10  16 FF 28            Loc_2A10:      LBRA Loc_293B         

; --------------------------------------------------------------
$2A13  A6 C9 0E 6D         Loc_2A13:      LDA 3693,U            
$2A17  84 7F                              ANDA #$7F             
$2A19  A7 C9 0E 6D                        STA 3693,U            
$2A1D  EA C9 0E 6D                        ORB 3693,U            
$2A21  E7 C9 0E 6D                        STB 3693,U            
$2A25  20 E9                              BRA Loc_2A10          

; --------------------------------------------------------------
$2A27  A6 1E               Loc_2A27:      LDA -2,X              
$2A29  80 31                              SUBA #$31             
$2A2B  81 07                              CMPA #$07             
$2A2D  22 1B                              BHI Loc_2A4A          
$2A2F  C6 80                              LDB #$80              
$2A31  3D                                 MUL                    ; D = A×B unsigned
$2A32  31 C9 0F 38                        LEAY 3896,U           
$2A36  31 AB                              LEAY D,Y              
$2A38  C6 80                              LDB #$80              
$2A3A  A6 80               Loc_2A3A:      LDA ,X+               
$2A3C  81 0D                              CMPA #$0D              ; compare A with CR
$2A3E  27 07                              BEQ Loc_2A47          
$2A40  A7 A0                              STA ,Y+               
$2A42  5A                                 DECB                  
$2A43  26 F5                              BNE Loc_2A3A          
$2A45  20 03                              BRA Loc_2A4A          

; --------------------------------------------------------------
$2A47  5F                  Loc_2A47:      CLRB                   ; B = 0
$2A48  ED A4                              STD ,Y                
$2A4A  16 FE EE            Loc_2A4A:      LBRA Loc_293B         

; --------------------------------------------------------------
$2A4D  31 C9 15 38         Loc_2A4D:      LEAY 5432,U           
$2A51  C6 80                              LDB #$80              
$2A53  A6 80               Loc_2A53:      LDA ,X+               
$2A55  81 0D                              CMPA #$0D              ; compare A with CR
$2A57  27 EE                              BEQ Loc_2A47          
$2A59  A7 A0                              STA ,Y+               
$2A5B  5A                                 DECB                  
$2A5C  26 F5                              BNE Loc_2A53          
$2A5E  20 03                              BRA Loc_2A63          

$2A60  5F                                         CLRB    ; B = 0
$2A61  ED A4                                      STD ,Y
$2A63  16 FE D5            Loc_2A63:      LBRA Loc_293B         

; --------------------------------------------------------------
$2A66  A6 01               Sub_2A66:      LDA 1,X               
$2A68  81 21                              CMPA #$21              ; compare A with '!'
$2A6A  25 1C                              BCS Loc_2A88           ; C=1 (BLO)
$2A6C  A6 84                              LDA ,X                
$2A6E  80 30                              SUBA #$30             
$2A70  81 0A                              CMPA #$0A              ; compare A with LF
$2A72  25 02                              BCS Loc_2A76           ; C=1 (BLO)
$2A74  80 07                              SUBA #$07             
$2A76  C6 10               Loc_2A76:      LDB #$10              
$2A78  3D                                 MUL                    ; D = A×B unsigned
$2A79  A6 01                              LDA 1,X               
$2A7B  80 30                              SUBA #$30             
$2A7D  81 0A                              CMPA #$0A              ; compare A with LF
$2A7F  25 02                              BCS Loc_2A83           ; C=1 (BLO)
$2A81  80 07                              SUBA #$07             
$2A83  A7 01               Loc_2A83:      STA 1,X               
$2A85  EB 01                              ADDB 1,X              
$2A87  39                  Loc_2A87:      RTS                   

; --------------------------------------------------------------
$2A88  A6 84               Loc_2A88:      LDA ,X                
$2A8A  80 30                              SUBA #$30             
$2A8C  81 0A                              CMPA #$0A              ; compare A with LF
$2A8E  25 02                              BCS Loc_2A92           ; C=1 (BLO)
$2A90  80 07                              SUBA #$07             
$2A92  1F 89               Loc_2A92:      TFR A,B               
$2A94  20 F1                              BRA Loc_2A87          

; --------------------------------------------------------------
$2A96  6D C9 0F 1F         Loc_2A96:      TST 3871,U            
$2A9A  10 27 01 23                        LBEQ Loc_2BC1         
$2A9E  17 EB 40                           LBSR Sub_15E1          ; call Sub_15E1
$2AA1  CC 14 03                           LDD #$1403            
$2AA4  ED C9 0E 57                        STD 3671,U            
$2AA8  CC 28 07                           LDD #$2807            
$2AAB  ED C9 0E 59                        STD 3673,U            
$2AAF  17 EA D9                           LBSR Sub_158B          ; call Sub_158B
$2AB2  30 8D D9 97                        LEAX Dat_044D,PC       ; X → Dat_044D
$2AB6  17 E9 78                           LBSR Sub_1431          ; call Sub_1431
$2AB9  17 F1 70                           LBSR Sub_1C2C          ; call Sub_1C2C
$2ABC  30 8D D9 A6                        LEAX Dat_0466,PC       ; X → Dat_0466
$2AC0  17 E9 6E                           LBSR Sub_1431          ; call Sub_1431
$2AC3  17 FB FC                           LBSR Sub_26C2          ; call Sub_26C2
$2AC6  30 8D D9 AF                        LEAX Dat_0479,PC       ; X → Dat_0479
$2ACA  17 E9 64                           LBSR Sub_1431          ; call Sub_1431
$2ACD  C6 01                              LDB #$01               ; B = SS.Ready  (GetStt/SetStt subcode)
$2ACF  E7 C9 15 BB                        STB 5563,U            
$2AD3  17 01 07                           LBSR Sub_2BDD          ; call Sub_2BDD
$2AD6  30 C9 0E F8                        LEAX 3832,U           
$2ADA  5F                                 CLRB                   ; B = 0
$2ADB  A6 80               Loc_2ADB:      LDA ,X+               
$2ADD  5C                                 INCB                  
$2ADE  C1 20                              CMPB #$20              ; compare B with ' '
$2AE0  22 03                              BHI Loc_2AE5          
$2AE2  4D                                 TSTA                  
$2AE3  26 F6                              BNE Loc_2ADB          
$2AE5  5A                  Loc_2AE5:      DECB                  
$2AE6  10 27 00 D7                        LBEQ Loc_2BC1         
$2AEA  4F                                 CLRA                   ; A = 0
$2AEB  1F 02                              TFR D,Y               
$2AED  10 AF C9 0E 69                     STY 3689,U            
$2AF2  30 8D D7 C4         Loc_2AF2:      LEAX Dat_02BA,PC       ; X → Dat_02BA
$2AF6  10 8E 00 04                        LDY #$0004            
$2AFA  A6 C8 33                           LDA 51,U              
$2AFD  10 3F 8A                           OS9 I$Write            ; path=A  count=Y  buf→X
$2B00  17 F9 72                           LBSR Sub_2475          ; call Sub_2475
$2B03  8E 00 78                           LDX #$0078            
$2B06  10 3F 0A                           OS9 F$Sleep            ; ticks→X  (0=forever)
$2B09  17 F9 59                           LBSR Sub_2465          ; call Sub_2465
$2B0C  25 05                              BCS $2B13              ; C=1 (BLO)
$2B0E  6F C8 2A                           CLR 42,U              
$2B11  20 05                              BRA Loc_2B18          

$2B13  86 01                                      LDA #$01
$2B15  A7 C8 2A                                   STA 42,U
$2B18  10 AE C9 0E 69      Loc_2B18:      LDY 3689,U            
$2B1D  30 C9 0E F8                        LEAX 3832,U           
$2B21  A6 C8 33                           LDA 51,U              
$2B24  10 3F 8A                           OS9 I$Write            ; path=A  count=Y  buf→X
$2B27  17 F9 4B                           LBSR Sub_2475          ; call Sub_2475
$2B2A  C6 FF                              LDB #$FF              
$2B2C  E7 C9 0E 6C                        STB 3692,U            
$2B30  17 E9 4D            Loc_2B30:      LBSR Sub_1480          ; call Sub_1480
$2B33  A7 C9 0E 6B                        STA 3691,U            
$2B37  6D C8 2A            Loc_2B37:      TST 42,U              
$2B3A  27 0C                              BEQ Loc_2B48          
$2B3C  17 F9 C3                           LBSR Sub_2502          ; call Sub_2502
$2B3F  24 64                              BCC Loc_2BA5           ; C=0 (BHS)
$2B41  17 F9 EA                           LBSR Sub_252E          ; call Sub_252E
$2B44  25 07                              BCS Loc_2B4D           ; C=1 (BLO)
$2B46  20 33                              BRA Loc_2B7B          

; --------------------------------------------------------------
$2B48  17 F9 1A            Loc_2B48:      LBSR Sub_2465          ; call Sub_2465
$2B4B  25 58                              BCS Loc_2BA5           ; C=1 (BLO)
$2B4D  86 00               Loc_2B4D:      LDA #$00               ; A = NUL
$2B4F  C6 27                              LDB #$27               ; B = SS.Sign  (GetStt/SetStt subcode)
$2B51  10 3F 8D                           OS9 I$GetStt           ; path=A  subcode=B  buf→X
$2B54  81 80                              CMPA #$80             
$2B56  10 27 00 67                        LBEQ Loc_2BC1         
$2B5A  17 E9 23                           LBSR Sub_1480          ; call Sub_1480
$2B5D  A1 C9 0E 6B                        CMPA 3691,U           
$2B61  27 D4                              BEQ Loc_2B37          
$2B63  6C C9 0E 6C                        INC 3692,U            
$2B67  30 8D D9 13                        LEAX Dat_047E,PC       ; X → Dat_047E
$2B6B  17 E8 C3                           LBSR Sub_1431          ; call Sub_1431
$2B6E  E6 C9 0E 6C                        LDB 3692,U            
$2B72  17 00 68                           LBSR Sub_2BDD          ; call Sub_2BDD
$2B75  E1 C9 0F 20                        CMPB 3872,U           
$2B79  25 B5                              BCS Loc_2B30           ; C=1 (BLO)
$2B7B  6C C9 15 BB         Loc_2B7B:      INC 5563,U            
$2B7F  30 8D D8 F6                        LEAX Dat_0479,PC       ; X → Dat_0479
$2B83  17 E8 AB                           LBSR Sub_1431          ; call Sub_1431
$2B86  E6 C9 15 BB                        LDB 5563,U            
$2B8A  17 00 50                           LBSR Sub_2BDD          ; call Sub_2BDD
$2B8D  E6 C9 0F 1F                        LDB 3871,U            
$2B91  C1 FF                              CMPB #$FF             
$2B93  10 27 FF 5B                        LBEQ Loc_2AF2         
$2B97  E6 C9 15 BB                        LDB 5563,U            
$2B9B  E1 C9 0F 1F                        CMPB 3871,U           
$2B9F  10 25 FF 4F                        LBCS Loc_2AF2         
$2BA3  20 1C                              BRA Loc_2BC1          

; --------------------------------------------------------------
$2BA5  86 01               Loc_2BA5:      LDA #$01              
$2BA7  C6 98                              LDB #$98              
$2BA9  8E 3F 06                           LDX #$3F06            
$2BAC  10 8E 0D 00                        LDY #$0D00            
$2BB0  10 3F 8E                           OS9 I$SetStt           ; path=A  subcode=B  buf→X
$2BB3  10 8E 0E 00                        LDY #$0E00            
$2BB7  10 3F 8E                           OS9 I$SetStt           ; path=A  subcode=B  buf→X
$2BBA  10 8E 0F 00                        LDY #$0F00            
$2BBE  10 3F 8E                           OS9 I$SetStt           ; path=A  subcode=B  buf→X
$2BC1  17 E9 01            Loc_2BC1:      LBSR Sub_14C5          ; call Sub_14C5
$2BC4  A6 C8 45                           LDA 69,U              
$2BC7  10 3F 8F                           OS9 I$Close            ; path=A
$2BCA  6D C9 15 38                        TST 5432,U            
$2BCE  27 03                              BEQ Loc_2BD3          
$2BD0  17 E7 6D                           LBSR Sub_1340          ; call Sub_1340
$2BD3  6F C9 15 BE         Loc_2BD3:      CLR 5566,U            
$2BD7  17 E2 73                           LBSR Sub_0E4D          ; call Sub_0E4D
$2BDA  16 FC C6                           LBRA Loc_28A3         

; --------------------------------------------------------------
$2BDD  34 16               Sub_2BDD:      PSHS A,B,X            
$2BDF  30 C9 15 C5                        LEAX 5573,U           
$2BE3  4F                                 CLRA                   ; A = 0
$2BE4  C1 64               Loc_2BE4:      CMPB #$64              ; compare B with 'd'
$2BE6  25 05                              BCS Loc_2BED           ; C=1 (BLO)
$2BE8  C0 64                              SUBB #$64             
$2BEA  4C                                 INCA                  
$2BEB  20 F7                              BRA Loc_2BE4          

; --------------------------------------------------------------
$2BED  8B 30               Loc_2BED:      ADDA #$30             
$2BEF  A7 80                              STA ,X+               
$2BF1  4F                                 CLRA                   ; A = 0
$2BF2  C1 0A               Loc_2BF2:      CMPB #$0A              ; compare B with LF
$2BF4  25 05                              BCS Loc_2BFB           ; C=1 (BLO)
$2BF6  C0 0A                              SUBB #$0A             
$2BF8  4C                                 INCA                  
$2BF9  20 F7                              BRA Loc_2BF2          

; --------------------------------------------------------------
$2BFB  8B 30               Loc_2BFB:      ADDA #$30             
$2BFD  A7 80                              STA ,X+               
$2BFF  CB 30                              ADDB #$30             
$2C01  E7 80                              STB ,X+               
$2C03  30 C9 15 C5                        LEAX 5573,U           
$2C07  10 8E 00 03                        LDY #$0003            
$2C0B  86 01                              LDA #$01              
$2C0D  10 3F 8A                           OS9 I$Write            ; path=A  count=Y  buf→X
$2C10  35 96                              PULS A,B,X,PC          ; return from subroutine  (PULS PC = RTS)

$2C12  81 0A                                      CMPA #$0A   ; compare A with LF
$2C14  25 05                                      BCS $2C1B   ; C=1 (BLO)
$2C16  8B 37                                      ADDA #$37
$2C18  A7 80                                      STA ,X+
$2C1A  39                                         RTS 
$2C1B  8B 30                                      ADDA #$30
$2C1D  A7 80                                      STA ,X+
$2C1F  39                                         RTS 
$2C20  C1 0A                                      CMPB #$0A   ; compare B with LF
$2C22  25 05                                      BCS $2C29   ; C=1 (BLO)
$2C24  CB 37                                      ADDB #$37
$2C26  E7 80                                      STB ,X+
$2C28  39                                         RTS 
$2C29  CB 30                                      ADDB #$30
$2C2B  E7 80                                      STB ,X+
$2C2D  39                                         RTS 
$2C2E  34 36               Loc_2C2E:      PSHS A,B,X,Y          
$2C30  16 00 B7                           LBRA Loc_2CEA         

; --------------------------------------------------------------
$2C33  A6 C9 0E 77         Sub_2C33:      LDA 3703,U            
$2C37  A7 C9 0E 5B                        STA 3675,U            
$2C3B  6F C9 0E 77                        CLR 3703,U            
$2C3F  6F C9 0E 68                        CLR 3688,U            
$2C43  6F C8 71                           CLR 113,U             
$2C46  6F C8 67                           CLR 103,U             
$2C49  6F C8 57                           CLR 87,U              
$2C4C  6F C8 56                           CLR 86,U              
$2C4F  6F C8 72                           CLR 114,U             
$2C52  6F C9 0E 75                        CLR 3701,U            
$2C56  6F C9 0E 76                        CLR 3702,U            
$2C5A  A6 C9 0E 6D                        LDA 3693,U            
$2C5E  A7 C9 15 C4                        STA 5572,U            
$2C62  84 0F                              ANDA #$0F             
$2C64  A7 C9 0E 6D                        STA 3693,U            
$2C68  A6 C9 0E 73                        LDA 3699,U            
$2C6C  A7 C9 15 C3                        STA 5571,U            
$2C70  6F C9 0E 73                        CLR 3699,U            
$2C74  6F C9 0E 74                        CLR 3700,U            
$2C78  6F C8 6A                           CLR 106,U             
$2C7B  6F C8 5A                           CLR 90,U              
$2C7E  17 E1 7E                           LBSR Sub_0DFF          ; call Sub_0DFF
$2C81  CC 15 04                           LDD #$1504            
$2C84  ED C9 0E 57                        STD 3671,U            
$2C88  CC 25 07                           LDD #$2507            
$2C8B  ED C9 0E 59                        STD 3673,U            
$2C8F  17 E8 F9                           LBSR Sub_158B          ; call Sub_158B
$2C92  6D C8 2D                           TST 45,U              
$2C95  27 24                              BEQ Loc_2CBB          
$2C97  A6 C9 0E 76                        LDA 3702,U            
$2C9B  E6 C9 0E 75                        LDB 3701,U            
$2C9F  34 06                              PSHS A,B              
$2CA1  4F                                 CLRA                   ; A = 0
$2CA2  A7 C9 0E 75                        STA 3701,U            
$2CA6  A7 C9 0E 76                        STA 3702,U            
$2CAA  17 09 31                           LBSR Sub_35DE          ; call Sub_35DE
$2CAD  EC 46                              LDD 6,U               
$2CAF  ED 48                              STD 8,U               
$2CB1  35 06                              PULS A,B              
$2CB3  A7 C9 0E 76                        STA 3702,U            
$2CB7  E7 C9 0E 75                        STB 3701,U            
$2CBB  30 8D D7 E6         Loc_2CBB:      LEAX Dat_04A5,PC       ; X → Dat_04A5
$2CBF  17 E7 6F                           LBSR Sub_1431          ; call Sub_1431
$2CC2  39                                 RTS                   

; --------------------------------------------------------------
$2CC3  34 36               Sub_2CC3:      PSHS A,B,X,Y          
$2CC5  17 04 9C            Loc_2CC5:      LBSR Sub_3164          ; call Sub_3164
$2CC8  A6 C8 33            Loc_2CC8:      LDA 51,U              
$2CCB  C6 01                              LDB #$01               ; B = SS.Ready  (GetStt/SetStt subcode)
$2CCD  10 3F 8D                           OS9 I$GetStt           ; path=A  subcode=B  buf→X
$2CD0  24 09                              BCC Loc_2CDB           ; C=0 (BHS)
$2CD2  17 04 9F                           LBSR Sub_3174          ; call Sub_3174
$2CD5  81 02                              CMPA #$02             
$2CD7  25 EF                              BCS Loc_2CC8           ; C=1 (BLO)
$2CD9  35 B6                              PULS A,B,X,Y,PC        ; return from subroutine  (PULS PC = RTS)

; --------------------------------------------------------------
$2CDB  4F                  Loc_2CDB:      CLRA                   ; A = 0
$2CDC  1F 02                              TFR D,Y               
$2CDE  A6 C8 33                           LDA 51,U              
$2CE1  30 C9 15 C5                        LEAX 5573,U           
$2CE5  10 3F 89                           OS9 I$Read             ; path=A  count=Y  buf→X
$2CE8  20 DB                              BRA Loc_2CC5          

; --------------------------------------------------------------
$2CEA  17 FF 46            Loc_2CEA:      LBSR Sub_2C33          ; call Sub_2C33
$2CED  6D C8 4D                           TST 77,U              
$2CF0  27 07                              BEQ Loc_2CF9          
$2CF2  30 8D D7 D1                        LEAX Dat_04C7,PC       ; X → Dat_04C7
$2CF6  17 E7 38                           LBSR Sub_1431          ; call Sub_1431
$2CF9  30 8D D7 D5         Loc_2CF9:      LEAX Dat_04D2,PC       ; X → Dat_04D2
$2CFD  17 E7 31                           LBSR Sub_1431          ; call Sub_1431
$2D00  30 8D D7 E8                        LEAX Dat_04EC,PC       ; X → Dat_04EC
$2D04  17 E7 2A                           LBSR Sub_1431          ; call Sub_1431
$2D07  30 8D D7 1F                        LEAX Dat_042A,PC       ; X → Dat_042A
$2D0B  17 E7 23                           LBSR Sub_1431          ; call Sub_1431
$2D0E  17 F5 0C            Loc_2D0E:      LBSR Sub_221D          ; call Sub_221D
$2D11  81 05                              CMPA #$05             
$2D13  10 27 02 6D                        LBEQ Loc_2F84         
$2D17  81 52                              CMPA #$52              ; compare A with 'R'
$2D19  27 06                              BEQ Loc_2D21          
$2D1B  81 53                              CMPA #$53              ; compare A with 'S'
$2D1D  27 06                              BEQ Loc_2D25          
$2D1F  20 ED                              BRA Loc_2D0E          

; --------------------------------------------------------------
$2D21  6C C9 0E 68         Loc_2D21:      INC 3688,U            
$2D25  30 8D D6 FD         Loc_2D25:      LEAX Dat_0426,PC       ; X → Dat_0426
$2D29  17 E7 05                           LBSR Sub_1431          ; call Sub_1431
$2D2C  30 8D D6 9C                        LEAX Dat_03CC,PC       ; X → Dat_03CC
$2D30  17 E6 FE                           LBSR Sub_1431          ; call Sub_1431
$2D33  30 8D D7 6E                        LEAX Dat_04A5,PC       ; X → Dat_04A5
$2D37  17 E6 F7                           LBSR Sub_1431          ; call Sub_1431
$2D3A  6D C8 4D                           TST 77,U              
$2D3D  27 07                              BEQ Loc_2D46          
$2D3F  30 8D D7 84                        LEAX Dat_04C7,PC       ; X → Dat_04C7
$2D43  17 E6 EB                           LBSR Sub_1431          ; call Sub_1431
$2D46  30 8D D7 A2         Loc_2D46:      LEAX Dat_04EC,PC       ; X → Dat_04EC
$2D4A  17 E6 E4                           LBSR Sub_1431          ; call Sub_1431
$2D4D  6F C8 56                           CLR 86,U              
$2D50  6D C8 4E                           TST 78,U              
$2D53  27 0A                              BEQ Loc_2D5F          
$2D55  30 8D D6 D1                        LEAX Dat_042A,PC       ; X → Dat_042A
$2D59  17 E6 D5                           LBSR Sub_1431          ; call Sub_1431
$2D5C  16 00 38                           LBRA Loc_2D97         

; --------------------------------------------------------------
$2D5F  30 8D D7 AF         Loc_2D5F:      LEAX Dat_0512,PC       ; X → Dat_0512
$2D63  17 E6 CB                           LBSR Sub_1431          ; call Sub_1431
$2D66  17 F4 B4            Loc_2D66:      LBSR Sub_221D          ; call Sub_221D
$2D69  81 59                              CMPA #$59              ; compare A with 'Y'
$2D6B  27 11                              BEQ Loc_2D7E          
$2D6D  81 4E                              CMPA #$4E              ; compare A with 'N'
$2D6F  27 08                              BEQ Loc_2D79          
$2D71  81 05                              CMPA #$05             
$2D73  10 27 02 0D                        LBEQ Loc_2F84         
$2D77  20 ED                              BRA Loc_2D66          

; --------------------------------------------------------------
$2D79  6F C8 56            Loc_2D79:      CLR 86,U              
$2D7C  20 03                              BRA Loc_2D81          

; --------------------------------------------------------------
$2D7E  6C C8 56            Loc_2D7E:      INC 86,U              
$2D81  17 EB 11            Loc_2D81:      LBSR Sub_1895          ; call Sub_1895
$2D84  30 8D D7 D2                        LEAX Dat_055A,PC       ; X → Dat_055A
$2D88  17 E6 A6                           LBSR Sub_1431          ; call Sub_1431
$2D8B  C6 1E                              LDB #$1E              
$2D8D  17 E7 03                           LBSR Sub_1493          ; call Sub_1493
$2D90  17 F4 6F                           LBSR Sub_2202          ; call Sub_2202
$2D93  10 25 01 ED                        LBCS Loc_2F84         
$2D97  30 8D D6 31         Loc_2D97:      LEAX Dat_03CC,PC       ; X → Dat_03CC
$2D9B  17 E6 93                           LBSR Sub_1431          ; call Sub_1431
$2D9E  30 8D D7 03                        LEAX Dat_04A5,PC       ; X → Dat_04A5
$2DA2  17 E6 8C                           LBSR Sub_1431          ; call Sub_1431
$2DA5  6D C8 4D                           TST 77,U              
$2DA8  27 14                              BEQ Loc_2DBE          
$2DAA  30 8D D7 19                        LEAX Dat_04C7,PC       ; X → Dat_04C7
$2DAE  17 E6 80                           LBSR Sub_1431          ; call Sub_1431
$2DB1  6D C8 4E                           TST 78,U              
$2DB4  27 08                              BEQ Loc_2DBE          
$2DB6  6D C9 0E 68                        TST 3688,U            
$2DBA  10 27 04 13                        LBEQ Loc_31D1         
$2DBE  6D C8 56            Loc_2DBE:      TST 86,U              
$2DC1  27 07                              BEQ Loc_2DCA          
$2DC3  30 8D D8 6F                        LEAX Dat_0636,PC       ; X → Dat_0636
$2DC7  17 E6 67                           LBSR Sub_1431          ; call Sub_1431
$2DCA  30 C9 09 D6         Loc_2DCA:      LEAX 2518,U           
$2DCE  31 C8 77                           LEAY 119,U            
$2DD1  C6 20                              LDB #$20               ; B = SS.ScSiz  (GetStt/SetStt subcode)
$2DD3  17 F6 7F                           LBSR Sub_2455          ; call Sub_2455
$2DD6  30 C8 77                           LEAX 119,U            
$2DD9  A6 84                              LDA ,X                
$2DDB  81 0D                              CMPA #$0D              ; compare A with CR
$2DDD  10 27 01 A3                        LBEQ Loc_2F84         
$2DE1  6D C9 0E 68                        TST 3688,U            
$2DE5  10 27 03 E8                        LBEQ Loc_31D1         
$2DE9  6D C8 4E                           TST 78,U              
$2DEC  26 2B                              BNE Loc_2E19          
$2DEE  30 8D D7 74                        LEAX Dat_0566,PC       ; X → Dat_0566
$2DF2  17 E6 3C                           LBSR Sub_1431          ; call Sub_1431
$2DF5  86 01                              LDA #$01              
$2DF7  30 C8 77                           LEAX 119,U            
$2DFA  10 8E 00 20                        LDY #$0020            
$2DFE  10 3F 8C                           OS9 I$WritLn           ; path=A  buf→X
$2E01  30 8D D6 25                        LEAX Dat_042A,PC       ; X → Dat_042A
$2E05  17 E6 29                           LBSR Sub_1431          ; call Sub_1431
$2E08  86 02                              LDA #$02              
$2E0A  C6 03                              LDB #$03               ; B = SS.Reset  (GetStt/SetStt subcode)
$2E0C  30 C8 77                           LEAX 119,U            
$2E0F  10 3F 83                           OS9 I$Create           ; mode=B  name→X  → path→A
$2E12  10 25 01 A7                        LBCS Loc_2FBD         
$2E16  A7 C8 4A                           STA 74,U              
$2E19  6D C8 4E            Loc_2E19:      TST 78,U              
$2E1C  27 05                              BEQ Loc_2E23          
$2E1E  CC 00 00            Loc_2E1E:      LDD #$0000            
$2E21  20 03                              BRA Loc_2E26          

; --------------------------------------------------------------
$2E23  CC 00 01            Loc_2E23:      LDD #$0001            
$2E26  ED C8 5B            Loc_2E26:      STD 91,U              
$2E29  30 8D D7 51                        LEAX Dat_057E,PC       ; X → Dat_057E
$2E2D  17 E6 01                           LBSR Sub_1431          ; call Sub_1431
$2E30  30 8D D6 CB                        LEAX Dat_04FF,PC       ; X → Dat_04FF
$2E34  17 E5 FA                           LBSR Sub_1431          ; call Sub_1431
$2E37  17 E7 D2                           LBSR Sub_160C          ; call Sub_160C
$2E3A  17 E7 BD                           LBSR Sub_15FA          ; call Sub_15FA
$2E3D  CC 00 85                           LDD #$0085            
$2E40  ED C8 5D                           STD 93,U              
$2E43  6C C8 62                           INC 98,U              
$2E46  C6 04                              LDB #$04              
$2E48  E7 C8 61                           STB 97,U              
$2E4B  17 E8 75            Loc_2E4B:      LBSR Sub_16C3          ; call Sub_16C3
$2E4E  6A C8 61                           DEC 97,U              
$2E51  17 03 10                           LBSR Sub_3164          ; call Sub_3164
$2E54  A6 C8 33            Loc_2E54:      LDA 51,U              
$2E57  C6 01                              LDB #$01               ; B = SS.Ready  (GetStt/SetStt subcode)
$2E59  10 3F 8D                           OS9 I$GetStt           ; path=A  subcode=B  buf→X
$2E5C  24 6D                              BCC Loc_2ECB           ; C=0 (BHS)
$2E5E  17 F2 D6                           LBSR Sub_2137          ; call Sub_2137
$2E61  10 25 01 85                        LBCS Loc_2FEA         
$2E65  17 03 0C                           LBSR Sub_3174          ; call Sub_3174
$2E68  81 03                              CMPA #$03             
$2E6A  25 E8                              BCS Loc_2E54           ; C=1 (BLO)
$2E6C  6D C8 61                           TST 97,U              
$2E6F  26 DA                              BNE Loc_2E4B          
$2E71  6F C8 62                           CLR 98,U              
$2E74  17 E8 58            Loc_2E74:      LBSR Sub_16CF          ; call Sub_16CF
$2E77  17 02 EA                           LBSR Sub_3164          ; call Sub_3164
$2E7A  A6 C8 33            Loc_2E7A:      LDA 51,U              
$2E7D  C6 01                              LDB #$01               ; B = SS.Ready  (GetStt/SetStt subcode)
$2E7F  10 3F 8D                           OS9 I$GetStt           ; path=A  subcode=B  buf→X
$2E82  24 47                              BCC Loc_2ECB           ; C=0 (BHS)
$2E84  17 F2 B0                           LBSR Sub_2137          ; call Sub_2137
$2E87  10 25 01 5F                        LBCS Loc_2FEA         
$2E8B  17 02 E6                           LBSR Sub_3174          ; call Sub_3174
$2E8E  81 0A                              CMPA #$0A              ; compare A with LF
$2E90  25 E8                              BCS Loc_2E7A           ; C=1 (BLO)
$2E92  6C C8 5A                           INC 90,U              
$2E95  17 E7 62                           LBSR Sub_15FA          ; call Sub_15FA
$2E98  17 E7 ED                           LBSR Sub_1688          ; call Sub_1688
$2E9B  A6 C8 5A                           LDA 90,U              
$2E9E  81 0A                              CMPA #$0A              ; compare A with LF
$2EA0  25 D2                              BCS Loc_2E74           ; C=1 (BLO)
$2EA2  16 01 45                           LBRA Loc_2FEA         

; --------------------------------------------------------------
$2EA5  EC C8 5B            Loc_2EA5:      LDD 91,U              
$2EA8  10 83 00 00                        CMPD #$0000           
$2EAC  26 08                              BNE Loc_2EB6          
$2EAE  17 E8 1A                           LBSR Sub_16CB          ; call Sub_16CB
$2EB1  17 E8 0F                           LBSR Sub_16C3          ; call Sub_16C3
$2EB4  20 03                              BRA Loc_2EB9          

; --------------------------------------------------------------
$2EB6  17 E8 12            Loc_2EB6:      LBSR Sub_16CB          ; call Sub_16CB
$2EB9  EC C8 5B            Loc_2EB9:      LDD 91,U              
$2EBC  C3 00 01                           ADDD #$0001           
$2EBF  ED C8 5B                           STD 91,U              
$2EC2  17 E7 47                           LBSR Sub_160C          ; call Sub_160C
$2EC5  6F C8 5A                           CLR 90,U              
$2EC8  17 E7 2F                           LBSR Sub_15FA          ; call Sub_15FA
$2ECB  17 F2 69            Loc_2ECB:      LBSR Sub_2137          ; call Sub_2137
$2ECE  10 25 01 18                        LBCS Loc_2FEA         
$2ED2  6F C9 00 BA                        CLR 186,U             
$2ED6  17 01 47                           LBSR Sub_3020          ; call Sub_3020
$2ED9  34 01                              PSHS CC               
$2EDB  EC C8 5B                           LDD 91,U              
$2EDE  10 83 00 00                        CMPD #$0000           
$2EE2  26 0B                              BNE Loc_2EEF          
$2EE4  6D C9 00 BA                        TST 186,U             
$2EE8  26 0B                              BNE Loc_2EF5          
$2EEA  35 01                              PULS CC               
$2EEC  16 00 FB                           LBRA Loc_2FEA         

; --------------------------------------------------------------
$2EEF  35 01               Loc_2EEF:      PULS CC               
$2EF1  25 22                              BCS Loc_2F15           ; C=1 (BLO)
$2EF3  20 0E                              BRA Loc_2F03          

; --------------------------------------------------------------
$2EF5  35 01               Loc_2EF5:      PULS CC               
$2EF7  24 08                              BCC Loc_2F01           ; C=0 (BHS)
$2EF9  86 0D                              LDA #$0D               ; A = CR
$2EFB  A7 C8 77                           STA 119,U             
$2EFE  16 00 E9                           LBRA Loc_2FEA         

; --------------------------------------------------------------
$2F01  20 A2               Loc_2F01:      BRA Loc_2EA5          

; --------------------------------------------------------------
$2F03  6D C8 67            Loc_2F03:      TST 103,U             
$2F06  26 1E                              BNE Loc_2F26          
$2F08  6D C8 6A                           TST 106,U             
$2F0B  27 98                              BEQ Loc_2EA5          
$2F0D  6F C8 6A                           CLR 106,U             
$2F10  17 E7 B8                           LBSR Sub_16CB          ; call Sub_16CB
$2F13  20 B6                              BRA Loc_2ECB          

; --------------------------------------------------------------
$2F15  A6 C8 5A            Loc_2F15:      LDA 90,U              
$2F18  81 09                              CMPA #$09             
$2F1A  10 22 00 CC                        LBHI Loc_2FEA         
$2F1E  17 FD A2                           LBSR Sub_2CC3          ; call Sub_2CC3
$2F21  17 E7 AB                           LBSR Sub_16CF          ; call Sub_16CF
$2F24  20 A5                              BRA Loc_2ECB          

; --------------------------------------------------------------
$2F26  6D C8 4E            Loc_2F26:      TST 78,U              
$2F29  27 40                              BEQ Loc_2F6B          
$2F2B  17 E7 A1                           LBSR Sub_16CF          ; call Sub_16CF
$2F2E  17 00 EF                           LBSR Sub_3020          ; call Sub_3020
$2F31  6F C8 67                           CLR 103,U             
$2F34  34 40                              PSHS U                
$2F36  EC C8 63                           LDD 99,U              
$2F39  26 07                              BNE Loc_2F42          
$2F3B  EC C8 65                           LDD 101,U             
$2F3E  26 02                              BNE Loc_2F42          
$2F40  20 11                              BRA Loc_2F53          

; --------------------------------------------------------------
$2F42  A6 C8 4A            Loc_2F42:      LDA 74,U              
$2F45  C6 02                              LDB #$02               ; B = SS.Size  (GetStt/SetStt subcode)
$2F47  AE C8 63                           LDX 99,U              
$2F4A  10 AE C8 65                        LDY 101,U             
$2F4E  1F 23                              TFR Y,U               
$2F50  10 3F 8E                           OS9 I$SetStt           ; path=A  subcode=B  buf→X
$2F53  35 40               Loc_2F53:      PULS U                
$2F55  A6 C8 4A                           LDA 74,U              
$2F58  10 3F 8F                           OS9 I$Close            ; path=A
$2F5B  86 0D                              LDA #$0D               ; A = CR
$2F5D  A7 C8 77                           STA 119,U             
$2F60  17 E7 68                           LBSR Sub_16CB          ; call Sub_16CB
$2F63  16 FE B8                           LBRA Loc_2E1E         

$2F66  17 E7 62                                   LBSR Sub_16CB   ; call Sub_16CB
$2F69  20 0C                                      BRA Loc_2F77
$2F6B  6F C8 67            Loc_2F6B:      CLR 103,U             
$2F6E  17 E7 5E                           LBSR Sub_16CF          ; call Sub_16CF
$2F71  17 00 AC                           LBSR Sub_3020          ; call Sub_3020
$2F74  17 E7 54                           LBSR Sub_16CB          ; call Sub_16CB
$2F77  6F C9 0E 68         Loc_2F77:      CLR 3688,U            
$2F7B  17 E7 1C                           LBSR Sub_169A          ; call Sub_169A
$2F7E  A6 C8 4A                           LDA 74,U              
$2F81  10 3F 8F                           OS9 I$Close            ; path=A
$2F84  A6 8D D9 02         Loc_2F84:      LDA Dat_088A,PC       
$2F88  A7 C9 0E 75                        STA 3701,U            
$2F8C  A6 8D D8 FB                        LDA Dat_088B,PC       
$2F90  A7 C9 0E 76                        STA 3702,U            
$2F94  A6 C9 0E 5B                        LDA 3675,U            
$2F98  A7 C9 0E 77                        STA 3703,U            
$2F9C  A6 C9 15 C3                        LDA 5571,U            
$2FA0  A7 C9 0E 73                        STA 3699,U            
$2FA4  A6 C9 15 C4                        LDA 5572,U            
$2FA8  A7 C9 0E 6D                        STA 3693,U            
$2FAC  17 DE 50                           LBSR Sub_0DFF          ; call Sub_0DFF
$2FAF  17 E6 2F                           LBSR Sub_15E1          ; call Sub_15E1
$2FB2  6F C8 4D                           CLR 77,U              
$2FB5  6F C8 4E                           CLR 78,U              
$2FB8  35 36               Sub_2FB8:      PULS A,B,X,Y          
$2FBA  16 DA 55                           LBRA Loc_0A12         

; --------------------------------------------------------------
$2FBD  86 07               Loc_2FBD:      LDA #$07              
$2FBF  17 E8 D3                           LBSR Sub_1895          ; call Sub_1895
$2FC2  34 04                              PSHS B                
$2FC4  CC 0D 02                           LDD #$0D02            
$2FC7  17 EB 2C                           LBSR Sub_1AF6          ; call Sub_1AF6
$2FCA  86 03                              LDA #$03              
$2FCC  17 E8 C6                           LBSR Sub_1895          ; call Sub_1895
$2FCF  30 8D D4 57                        LEAX Dat_042A,PC       ; X → Dat_042A
$2FD3  17 E4 5B                           LBSR Sub_1431          ; call Sub_1431
$2FD6  35 04                              PULS B                
$2FD8  10 3F 0F                           OS9 F$PErr             ; path=A  error=B
$2FDB  8E 00 3C                           LDX #$003C            
$2FDE  10 3F 0A                           OS9 F$Sleep            ; ticks→X  (0=forever)
$2FE1  30 8D D4 41                        LEAX Dat_0426,PC       ; X → Dat_0426
$2FE5  17 E4 49                           LBSR Sub_1431          ; call Sub_1431
$2FE8  20 9A                              BRA Loc_2F84          

; --------------------------------------------------------------
$2FEA  A6 C8 4A            Loc_2FEA:      LDA 74,U              
$2FED  10 3F 8F                           OS9 I$Close            ; path=A
$2FF0  30 C8 77                           LEAX 119,U            
$2FF3  10 3F 87                           OS9 I$Delete           ; name→X
$2FF6  17 FC CA                           LBSR Sub_2CC3          ; call Sub_2CC3
$2FF9  30 C9 15 C5         Loc_2FF9:      LEAX 5573,U           
$2FFD  86 18                              LDA #$18              
$2FFF  C6 04                              LDB #$04              
$3001  A7 80               Loc_3001:      STA ,X+               
$3003  5A                                 DECB                  
$3004  26 FB                              BNE Loc_3001          
$3006  86 03                              LDA #$03              
$3008  C6 04                              LDB #$04              
$300A  A7 80               Loc_300A:      STA ,X+               
$300C  5A                                 DECB                  
$300D  26 FB                              BNE Loc_300A          
$300F  A6 C8 33                           LDA 51,U              
$3012  10 8E 00 08                        LDY #$0008            
$3016  30 C9 15 C5                        LEAX 5573,U           
$301A  10 3F 8A                           OS9 I$Write            ; path=A  count=Y  buf→X
$301D  16 FF 57                           LBRA Loc_2F77         

; --------------------------------------------------------------
$3020  34 30               Sub_3020:      PSHS X,Y              
$3022  30 C9 00 B7                        LEAX 183,U            
$3026  CC 00 00                           LDD #$0000            
$3029  ED C8 57                           STD 87,U              
$302C  6F C8 67                           CLR 103,U             
$302F  17 01 32                           LBSR Sub_3164          ; call Sub_3164
$3032  17 01 3F            Loc_3032:      LBSR Sub_3174          ; call Sub_3174
$3035  81 04                              CMPA #$04             
$3037  10 22 01 11                        LBHI Loc_314C         
$303B  A6 C8 33                           LDA 51,U              
$303E  C6 01                              LDB #$01               ; B = SS.Ready  (GetStt/SetStt subcode)
$3040  10 3F 8D                           OS9 I$GetStt           ; path=A  subcode=B  buf→X
$3043  25 ED                              BCS Loc_3032           ; C=1 (BLO)
$3045  17 01 1C                           LBSR Sub_3164          ; call Sub_3164
$3048  4F                                 CLRA                   ; A = 0
$3049  1F 02                              TFR D,Y               
$304B  A6 C8 33                           LDA 51,U              
$304E  10 3F 89                           OS9 I$Read             ; path=A  count=Y  buf→X
$3051  25 DF                              BCS Loc_3032           ; C=1 (BLO)
$3053  1F 20                              TFR Y,D               
$3055  1F 98                              TFR B,A               
$3057  30 86                              LEAX A,X              
$3059  A6 C9 00 B7                        LDA 183,U             
$305D  81 04                              CMPA #$04             
$305F  10 27 00 F5                        LBEQ Loc_3158         
$3063  81 18                              CMPA #$18             
$3065  10 27 00 F7                        LBEQ Loc_3160         
$3069  81 02                              CMPA #$02             
$306B  26 24                              BNE Loc_3091          
$306D  6D C8 4D                           TST 77,U              
$3070  10 27 00 D8                        LBEQ Loc_314C         
$3074  34 04                              PSHS B                
$3076  CC 04 00                           LDD #$0400            
$3079  ED C8 5F                           STD 95,U              
$307C  CC 04 05                           LDD #$0405            
$307F  ED C8 5D                           STD 93,U              
$3082  35 04                              PULS B                
$3084  20 26                              BRA Loc_30AC          

; --------------------------------------------------------------
$3086  CC 00 80            Loc_3086:      LDD #$0080            
$3089  ED C8 5F                           STD 95,U              
$308C  CC 00 85                           LDD #$0085            
$308F  20 16                              BRA Loc_30A7          

; --------------------------------------------------------------
$3091  81 01               Loc_3091:      CMPA #$01             
$3093  10 26 00 B5                        LBNE Loc_314C         
$3097  34 04                              PSHS B                
$3099  6D C8 62                           TST 98,U              
$309C  26 E8                              BNE Loc_3086          
$309E  CC 00 80                           LDD #$0080            
$30A1  ED C8 5F                           STD 95,U              
$30A4  CC 00 84                           LDD #$0084            
$30A7  ED C8 5D            Loc_30A7:      STD 93,U              
$30AA  35 04                              PULS B                
$30AC  E7 C8 59            Loc_30AC:      STB 89,U              
$30AF  34 04                              PSHS B                
$30B1  34 04                              PSHS B                
$30B3  EC C8 57                           LDD 87,U              
$30B6  6F E4                              CLR ,S                
$30B8  E3 E1                              ADDD ,S++             
$30BA  ED C8 57                           STD 87,U              
$30BD  10 A3 C8 5D                        CMPD 93,U             
$30C1  10 25 FF 6D                        LBCS Loc_3032         
$30C5  6D C8 62                           TST 98,U              
$30C8  26 0A                              BNE Loc_30D4          
$30CA  17 00 CA                           LBSR Sub_3197          ; call Sub_3197
$30CD  6D C8 6B            Loc_30CD:      TST 107,U             
$30D0  26 7A                              BNE Loc_314C          
$30D2  20 05                              BRA Loc_30D9          

; --------------------------------------------------------------
$30D4  17 F1 F2            Loc_30D4:      LBSR Sub_22C9          ; call Sub_22C9
$30D7  20 F4                              BRA Loc_30CD          

; --------------------------------------------------------------
$30D9  6D C8 6A            Loc_30D9:      TST 106,U             
$30DC  26 2D                              BNE Loc_310B          
$30DE  EC C8 5B                           LDD 91,U              
$30E1  10 83 00 00                        CMPD #$0000           
$30E5  10 26 00 09                        LBNE Loc_30F2         
$30E9  17 EF 72                           LBSR Sub_205E          ; call Sub_205E
$30EC  10 25 00 5C                        LBCS Loc_314C         
$30F0  20 19                              BRA Loc_310B          

; --------------------------------------------------------------
$30F2  A6 C8 4A            Loc_30F2:      LDA 74,U              
$30F5  30 C9 00 B7                        LEAX 183,U            
$30F9  30 03                              LEAX 3,X              
$30FB  E6 C8 56                           LDB 86,U              
$30FE  27 04                              BEQ Loc_3104          
$3100  8D 0C                              BSR Sub_310E           ; call Sub_310E
$3102  20 04                              BRA Loc_3108          

; --------------------------------------------------------------
$3104  10 AE C8 5F         Loc_3104:      LDY 95,U              
$3108  17 EC 1D            Loc_3108:      LBSR Sub_1D28          ; call Sub_1D28
$310B  35 30               Loc_310B:      PULS X,Y              
$310D  39                                 RTS                   

; --------------------------------------------------------------
$310E  34 06               Sub_310E:      PSHS A,B              
$3110  31 C9 04 C7                        LEAY 1223,U           
$3114  CC 00 00                           LDD #$0000            
$3117  34 06                              PSHS A,B              
$3119  34 06                              PSHS A,B              
$311B  EC E4               Loc_311B:      LDD ,S                
$311D  C3 00 01                           ADDD #$0001           
$3120  ED E4                              STD ,S                
$3122  A6 80                              LDA ,X+               
$3124  81 0A                              CMPA #$0A              ; compare A with LF
$3126  27 0F                              BEQ Loc_3137          
$3128  81 1A                              CMPA #$1A              ; compare A with SUB
$312A  27 0B                              BEQ Loc_3137          
$312C  84 7F                              ANDA #$7F             
$312E  A7 A0                              STA ,Y+               
$3130  EC 62                              LDD 2,S               
$3132  C3 00 01                           ADDD #$0001           
$3135  ED 62                              STD 2,S               
$3137  EC E4               Loc_3137:      LDD ,S                
$3139  10 A3 C8 5F                        CMPD 95,U             
$313D  25 DC                              BCS Loc_311B           ; C=1 (BLO)
$313F  EC 62                              LDD 2,S               
$3141  1F 02                              TFR D,Y               
$3143  30 C9 04 C7                        LEAX 1223,U           
$3147  32 64                              LEAS 4,S              
$3149  35 06                              PULS A,B              
$314B  39                                 RTS                   

; --------------------------------------------------------------
$314C  6C C8 5A            Loc_314C:      INC 90,U              
$314F  17 E4 A8                           LBSR Sub_15FA          ; call Sub_15FA
$3152  17 E5 33                           LBSR Sub_1688          ; call Sub_1688
$3155  53                                 COMB                  
$3156  20 B3                              BRA Loc_310B          

; --------------------------------------------------------------
$3158  6C C8 67            Loc_3158:      INC 103,U             
$315B  17 EB CA                           LBSR Sub_1D28          ; call Sub_1D28
$315E  20 AB                              BRA Loc_310B          

; --------------------------------------------------------------
$3160  86 0A               Loc_3160:      LDA #$0A               ; A = LF
$3162  20 E8                              BRA Loc_314C          

; --------------------------------------------------------------
$3164  34 12               Sub_3164:      PSHS A,X              
$3166  30 C9 0E 61                        LEAX 3681,U           
$316A  10 3F 15                           OS9 F$Time             ; buf→X  → 6-byte time
$316D  A6 05                              LDA 5,X               
$316F  A7 C8 69                           STA 105,U             
$3172  35 92                              PULS A,X,PC            ; return from subroutine  (PULS PC = RTS)

; --------------------------------------------------------------
$3174  34 10               Sub_3174:      PSHS X                
$3176  30 C9 0E 61                        LEAX 3681,U           
$317A  10 3F 15                           OS9 F$Time             ; buf→X  → 6-byte time
$317D  A6 05                              LDA 5,X               
$317F  8E 00 0A                           LDX #$000A            
$3182  10 3F 0A                           OS9 F$Sleep            ; ticks→X  (0=forever)
$3185  8B 3C                              ADDA #$3C             
$3187  A7 C8 68                           STA 104,U             
$318A  A0 C8 69                           SUBA 105,U            
$318D  81 3C               Loc_318D:      CMPA #$3C              ; compare A with '<'
$318F  25 04                              BCS Loc_3195           ; C=1 (BLO)
$3191  80 3C                              SUBA #$3C             
$3193  20 F8                              BRA Loc_318D          

; --------------------------------------------------------------
$3195  35 90               Loc_3195:      PULS X,PC              ; return from subroutine  (PULS PC = RTS)

; --------------------------------------------------------------
$3197  34 16               Sub_3197:      PSHS A,B,X            
$3199  30 C9 00 B7                        LEAX 183,U            
$319D  EC C8 5B                           LDD 91,U              
$31A0  E1 01                              CMPB 1,X              
$31A2  26 22                              BNE Loc_31C6          
$31A4  A6 01                              LDA 1,X               
$31A6  43                                 COMA                  
$31A7  A1 02                              CMPA 2,X              
$31A9  26 16                              BNE Loc_31C1          
$31AB  4F                                 CLRA                   ; A = 0
$31AC  30 03                              LEAX 3,X              
$31AE  C6 80                              LDB #$80              
$31B0  AB 80               Loc_31B0:      ADDA ,X+              
$31B2  5A                                 DECB                  
$31B3  26 FB                              BNE Loc_31B0          
$31B5  A1 84                              CMPA ,X               
$31B7  26 08                              BNE Loc_31C1          
$31B9  6F C8 6B            Loc_31B9:      CLR 107,U             
$31BC  6F C8 6A                           CLR 106,U             
$31BF  35 96               Loc_31BF:      PULS A,B,X,PC          ; return from subroutine  (PULS PC = RTS)

; --------------------------------------------------------------
$31C1  6C C8 6B            Loc_31C1:      INC 107,U             
$31C4  20 F9                              BRA Loc_31BF          

; --------------------------------------------------------------
$31C6  E0 01               Loc_31C6:      SUBB 1,X              
$31C8  C1 01                              CMPB #$01             
$31CA  26 F5                              BNE Loc_31C1          
$31CC  6C C8 6A                           INC 106,U             
$31CF  20 E8                              BRA Loc_31B9          

; --------------------------------------------------------------
$31D1  6D C8 4E            Loc_31D1:      TST 78,U              
$31D4  27 06                              BEQ Loc_31DC          
$31D6  17 EF C5                           LBSR Sub_219E          ; call Sub_219E
$31D9  17 F0 0B            Loc_31D9:      LBSR Sub_21E7          ; call Sub_21E7
$31DC  30 8D D3 92         Loc_31DC:      LEAX Dat_0572,PC       ; X → Dat_0572
$31E0  17 E2 4E                           LBSR Sub_1431          ; call Sub_1431
$31E3  30 C8 77                           LEAX 119,U            
$31E6  86 01                              LDA #$01              
$31E8  10 8E 00 20                        LDY #$0020            
$31EC  10 3F 8C                           OS9 I$WritLn           ; path=A  buf→X
$31EF  30 8D D2 37                        LEAX Dat_042A,PC       ; X → Dat_042A
$31F3  17 E2 3B                           LBSR Sub_1431          ; call Sub_1431
$31F6  86 01                              LDA #$01              
$31F8  30 C8 77                           LEAX 119,U            
$31FB  10 3F 84                           OS9 I$Open             ; mode=B  name→X  → path→A
$31FE  24 0C                              BCC Loc_320C           ; C=0 (BHS)
$3200  6D C8 4E                           TST 78,U              
$3203  10 27 FD 7D                        LBEQ Loc_2F84         
$3207  6C C8 71                           INC 113,U             
$320A  20 25                              BRA Loc_3231          

; --------------------------------------------------------------
$320C  A7 C8 4A            Loc_320C:      STA 74,U              
$320F  C6 00                              LDB #$00               ; B = SS.Opt  (GetStt/SetStt subcode)
$3211  30 C9 15 C5                        LEAX 5573,U           
$3215  10 3F 8D                           OS9 I$GetStt           ; path=A  subcode=B  buf→X
$3218  6D C8 56                           TST 86,U              
$321B  27 04                              BEQ Loc_3221          
$321D  86 01                              LDA #$01              
$321F  A7 05                              STA 5,X               
$3221  6F 88 10            Loc_3221:      CLR 16,X              
$3224  6F 88 11                           CLR 17,X              
$3227  6F 0C                              CLR 12,X              
$3229  A6 C8 4A                           LDA 74,U              
$322C  C6 00                              LDB #$00               ; B = SS.Opt  (GetStt/SetStt subcode)
$322E  10 3F 8E                           OS9 I$SetStt           ; path=A  subcode=B  buf→X
$3231  30 8D D3 49         Loc_3231:      LEAX Dat_057E,PC       ; X → Dat_057E
$3235  17 E1 F9                           LBSR Sub_1431          ; call Sub_1431
$3238  30 8D D2 C3                        LEAX Dat_04FF,PC       ; X → Dat_04FF
$323C  17 E1 F2                           LBSR Sub_1431          ; call Sub_1431
$323F  6F C8 62                           CLR 98,U              
$3242  CC 00 80                           LDD #$0080            
$3245  ED C8 5F                           STD 95,U              
$3248  C3 00 04                           ADDD #$0004           
$324B  ED C8 5D                           STD 93,U              
$324E  6D C8 4E                           TST 78,U              
$3251  27 03                              BEQ Loc_3256          
$3253  16 01 12                           LBRA Loc_3368         

; --------------------------------------------------------------
$3256  6D C8 4D            Loc_3256:      TST 77,U              
$3259  27 0C                              BEQ Loc_3267          
$325B  CC 04 00                           LDD #$0400            
$325E  ED C8 5F                           STD 95,U              
$3261  C3 00 04                           ADDD #$0004           
$3264  ED C8 5D                           STD 93,U              
$3267  CC 00 01            Loc_3267:      LDD #$0001            
$326A  ED C8 5B                           STD 91,U              
$326D  17 E3 9C                           LBSR Sub_160C          ; call Sub_160C
$3270  17 E3 87                           LBSR Sub_15FA          ; call Sub_15FA
$3273  17 FA 4D                           LBSR Sub_2CC3          ; call Sub_2CC3
$3276  17 E9 EA                           LBSR Sub_1C63          ; call Sub_1C63
$3279  6D C8 4E                           TST 78,U              
$327C  27 09                              BEQ Loc_3287          
$327E  EC C8 5B                           LDD 91,U              
$3281  10 83 00 01                        CMPD #$0001           
$3285  27 10                              BEQ Loc_3297          
$3287  17 EE D7            Loc_3287:      LBSR Sub_2161          ; call Sub_2161
$328A  10 25 00 D7                        LBCS Loc_3365         
$328E  81 43                              CMPA #$43              ; compare A with 'C'
$3290  27 05                              BEQ Loc_3297          
$3292  17 EA 6F                           LBSR Sub_1D04          ; call Sub_1D04
$3295  20 13                              BRA Loc_32AA          

; --------------------------------------------------------------
$3297  86 01               Loc_3297:      LDA #$01              
$3299  A7 C8 62                           STA 98,U              
$329C  17 EA 65                           LBSR Sub_1D04          ; call Sub_1D04
$329F  EC C8 5F                           LDD 95,U              
$32A2  C3 00 05                           ADDD #$0005           
$32A5  ED C8 5D                           STD 93,U              
$32A8  20 10                              BRA Loc_32BA          

; --------------------------------------------------------------
$32AA  81 15               Loc_32AA:      CMPA #$15             
$32AC  27 0C                              BEQ Loc_32BA          
$32AE  81 06                              CMPA #$06             
$32B0  27 38                              BEQ Loc_32EA          
$32B2  81 18                              CMPA #$18             
$32B4  10 27 00 AD                        LBEQ Loc_3365         
$32B8  20 CD                              BRA Loc_3287          

; --------------------------------------------------------------
$32BA  6C C8 5A            Loc_32BA:      INC 90,U              
$32BD  A6 C8 5A                           LDA 90,U              
$32C0  81 09                              CMPA #$09             
$32C2  10 22 00 9F                        LBHI Loc_3365         
$32C6  81 01                              CMPA #$01             
$32C8  26 09                              BNE Loc_32D3          
$32CA  EC C8 5B                           LDD 91,U              
$32CD  10 83 00 01                        CMPD #$0001           
$32D1  27 06                              BEQ Loc_32D9          
$32D3  17 E3 24            Loc_32D3:      LBSR Sub_15FA          ; call Sub_15FA
$32D6  17 E3 AF                           LBSR Sub_1688          ; call Sub_1688
$32D9  10 AE C8 5D         Loc_32D9:      LDY 93,U              
$32DD  A6 C8 33                           LDA 51,U              
$32E0  30 C9 04 C7                        LEAX 1223,U           
$32E4  10 3F 8A                           OS9 I$Write            ; path=A  count=Y  buf→X
$32E7  16 FF 9D                           LBRA Loc_3287         

; --------------------------------------------------------------
$32EA  6F C8 5A            Loc_32EA:      CLR 90,U              
$32ED  17 E3 0A                           LBSR Sub_15FA          ; call Sub_15FA
$32F0  6D C8 67                           TST 103,U             
$32F3  26 43                              BNE Loc_3338          
$32F5  EC C8 5B                           LDD 91,U              
$32F8  C3 00 01                           ADDD #$0001           
$32FB  ED C8 5B                           STD 91,U              
$32FE  6D C8 4D                           TST 77,U              
$3301  27 16                              BEQ Loc_3319          
$3303  CC 04 00                           LDD #$0400            
$3306  ED C8 5F                           STD 95,U              
$3309  6D C8 62                           TST 98,U              
$330C  27 05                              BEQ Loc_3313          
$330E  C3 00 05                           ADDD #$0005           
$3311  20 03                              BRA Loc_3316          

; --------------------------------------------------------------
$3313  C3 00 04            Loc_3313:      ADDD #$0004           
$3316  ED C8 5D            Loc_3316:      STD 93,U              
$3319  17 E2 F0            Loc_3319:      LBSR Sub_160C          ; call Sub_160C
$331C  17 E9 44                           LBSR Sub_1C63          ; call Sub_1C63
$331F  6D C8 67                           TST 103,U             
$3322  26 14                              BNE Loc_3338          
$3324  17 E9 DD                           LBSR Sub_1D04          ; call Sub_1D04
$3327  A6 C8 33                           LDA 51,U              
$332A  30 C9 04 C7                        LEAX 1223,U           
$332E  10 AE C8 5D                        LDY 93,U              
$3332  10 3F 8A                           OS9 I$Write            ; path=A  count=Y  buf→X
$3335  16 FF 4F                           LBRA Loc_3287         

; --------------------------------------------------------------
$3338  A6 C8 4A            Loc_3338:      LDA 74,U              
$333B  10 3F 8F                           OS9 I$Close            ; path=A
$333E  6F C8 67                           CLR 103,U             
$3341  6D C8 4E                           TST 78,U              
$3344  27 0E                              BEQ Loc_3354          
$3346  17 E3 7E                           LBSR Sub_16C7          ; call Sub_16C7
$3349  17 EE 15                           LBSR Sub_2161          ; call Sub_2161
$334C  10 25 00 15                        LBCS Loc_3365         
$3350  12                                 NOP                   
$3351  16 FE 85                           LBRA Loc_31D9         

; --------------------------------------------------------------
$3354  17 E3 70            Loc_3354:      LBSR Sub_16C7          ; call Sub_16C7
$3357  17 EE 07                           LBSR Sub_2161          ; call Sub_2161
$335A  10 25 00 07                        LBCS Loc_3365         
$335E  81 06                              CMPA #$06             
$3360  26 F2                              BNE Loc_3354          
$3362  16 FC 12                           LBRA Loc_2F77         

; --------------------------------------------------------------
$3365  16 FC 91            Loc_3365:      LBRA Loc_2FF9         

; --------------------------------------------------------------
$3368  17 ED F6            Loc_3368:      LBSR Sub_2161          ; call Sub_2161
$336B  10 25 FF F6                        LBCS Loc_3365         
$336F  81 43                              CMPA #$43              ; compare A with 'C'
$3371  26 F5                              BNE Loc_3368          
$3373  6C C8 62                           INC 98,U              
$3376  EC C8 5F                           LDD 95,U              
$3379  C3 00 05                           ADDD #$0005           
$337C  ED C8 5D                           STD 93,U              
$337F  CC 00 00                           LDD #$0000            
$3382  ED C8 5B                           STD 91,U              
$3385  17 E8 DB                           LBSR Sub_1C63          ; call Sub_1C63
$3388  17 E2 81                           LBSR Sub_160C          ; call Sub_160C
$338B  17 E9 76                           LBSR Sub_1D04          ; call Sub_1D04
$338E  30 C9 04 C7                        LEAX 1223,U           
$3392  31 C9 15 C5                        LEAY 5573,U           
$3396  C6 86                              LDB #$86              
$3398  17 F0 BA                           LBSR Sub_2455          ; call Sub_2455
$339B  6D C8 71                           TST 113,U             
$339E  27 02                              BEQ Loc_33A2          
$33A0  20 12                              BRA Loc_33B4          

; --------------------------------------------------------------
$33A2  CC 00 01            Loc_33A2:      LDD #$0001            
$33A5  ED C8 5B                           STD 91,U              
$33A8  CC 04 00                           LDD #$0400            
$33AB  ED C8 5F                           STD 95,U              
$33AE  17 E8 B2                           LBSR Sub_1C63          ; call Sub_1C63
$33B1  17 E9 50                           LBSR Sub_1D04          ; call Sub_1D04
$33B4  A6 C8 33            Loc_33B4:      LDA 51,U              
$33B7  30 C9 15 C5                        LEAX 5573,U           
$33BB  10 AE C8 5D                        LDY 93,U              
$33BF  10 3F 8A                           OS9 I$Write            ; path=A  count=Y  buf→X
$33C2  17 ED 9C            Loc_33C2:      LBSR Sub_2161          ; call Sub_2161
$33C5  10 25 FF 9C                        LBCS Loc_3365         
$33C9  81 06                              CMPA #$06             
$33CB  27 18                              BEQ Loc_33E5          
$33CD  81 15                              CMPA #$15             
$33CF  26 F1                              BNE Loc_33C2          
$33D1  6C C8 5A                           INC 90,U              
$33D4  A6 C8 5A                           LDA 90,U              
$33D7  81 09                              CMPA #$09             
$33D9  10 22 FF 88                        LBHI Loc_3365         
$33DD  17 E2 1A                           LBSR Sub_15FA          ; call Sub_15FA
$33E0  17 E2 A5                           LBSR Sub_1688          ; call Sub_1688
$33E3  20 CF                              BRA Loc_33B4          

; --------------------------------------------------------------
$33E5  6D C8 71            Loc_33E5:      TST 113,U             
$33E8  27 03                              BEQ Loc_33ED          
$33EA  16 FB 97                           LBRA Loc_2F84         

; --------------------------------------------------------------
$33ED  CC 00 01            Loc_33ED:      LDD #$0001            
$33F0  ED C8 5B                           STD 91,U              
$33F3  17 E2 16                           LBSR Sub_160C          ; call Sub_160C
$33F6  EC C8 5F                           LDD 95,U              
$33F9  C3 00 05                           ADDD #$0005           
$33FC  ED C8 5D                           STD 93,U              
$33FF  17 ED 5F                           LBSR Sub_2161          ; call Sub_2161
$3402  10 25 FF 5F                        LBCS Loc_3365         
$3406  81 43                              CMPA #$43              ; compare A with 'C'
$3408  26 DB                              BNE Loc_33E5          
$340A  A6 C8 33                           LDA 51,U              
$340D  30 C9 04 C7                        LEAX 1223,U           
$3411  10 AE C8 5D                        LDY 93,U              
$3415  10 3F 8A                           OS9 I$Write            ; path=A  count=Y  buf→X
$3418  16 FE 6C                           LBRA Loc_3287         

; --------------------------------------------------------------
$341B  34 36               Sub_341B:      PSHS A,B,X,Y          
$341D  CC 15 04                           LDD #$1504            
$3420  ED C9 0E 57                        STD 3671,U            
$3424  CC 25 07                           LDD #$2507            
$3427  ED C9 0E 59                        STD 3673,U            
$342B  17 E1 5D                           LBSR Sub_158B          ; call Sub_158B
$342E  30 8D CF F8                        LEAX Dat_042A,PC       ; X → Dat_042A
$3432  17 DF FC                           LBSR Sub_1431          ; call Sub_1431
$3435  30 8D D0 4A                        LEAX Dat_0483,PC       ; X → Dat_0483
$3439  17 DF F5                           LBSR Sub_1431          ; call Sub_1431
$343C  30 8D D0 92                        LEAX Dat_04D2,PC       ; X → Dat_04D2
$3440  17 DF EE                           LBSR Sub_1431          ; call Sub_1431
$3443  30 8D D0 A5                        LEAX Dat_04EC,PC       ; X → Dat_04EC
$3447  17 DF E7                           LBSR Sub_1431          ; call Sub_1431
$344A  17 ED D0            Loc_344A:      LBSR Sub_221D          ; call Sub_221D
$344D  81 53                              CMPA #$53              ; compare A with 'S'
$344F  10 27 02 09                        LBEQ Loc_365C         
$3453  81 52                              CMPA #$52              ; compare A with 'R'
$3455  27 08                              BEQ Loc_345F          
$3457  81 05                              CMPA #$05             
$3459  10 27 00 E7                        LBEQ Loc_3544         
$345D  20 EB                              BRA Loc_344A          

; --------------------------------------------------------------
$345F  30 8D D2 C0         Loc_345F:      LEAX Dat_0723,PC       ; X → Dat_0723
$3463  17 DF CB                           LBSR Sub_1431          ; call Sub_1431
$3466  30 8D D0 82                        LEAX Dat_04EC,PC       ; X → Dat_04EC
$346A  17 DF C4                           LBSR Sub_1431          ; call Sub_1431
$346D  30 8D CF B5                        LEAX Dat_0426,PC       ; X → Dat_0426
$3471  17 DF BD                           LBSR Sub_1431          ; call Sub_1431
$3474  6D C8 2D                           TST 45,U              
$3477  27 51                              BEQ Loc_34CA          
$3479  30 8D D2 FC                        LEAX Dat_0779,PC       ; X → Dat_0779
$347D  17 DF B1                           LBSR Sub_1431          ; call Sub_1431
$3480  30 C9 00 97                        LEAX 151,U            
$3484  86 01                              LDA #$01              
$3486  10 AE C8 26                        LDY 38,U              
$348A  31 3F                              LEAY -1,Y             
$348C  10 3F 8A                           OS9 I$Write            ; path=A  count=Y  buf→X
$348F  30 8D D2 A9                        LEAX Dat_073C,PC       ; X → Dat_073C
$3493  17 DF 9B                           LBSR Sub_1431          ; call Sub_1431
$3496  17 ED 84            Loc_3496:      LBSR Sub_221D          ; call Sub_221D
$3499  81 59                              CMPA #$59              ; compare A with 'Y'
$349B  10 27 00 0F                        LBEQ Loc_34AE         
$349F  81 4E                              CMPA #$4E              ; compare A with 'N'
$34A1  10 27 00 9F                        LBEQ Loc_3544         
$34A5  81 05                              CMPA #$05             
$34A7  10 27 00 99                        LBEQ Loc_3544         
$34AB  16 FF E8                           LBRA Loc_3496         

; --------------------------------------------------------------
$34AE  17 01 2D            Loc_34AE:      LBSR Sub_35DE          ; call Sub_35DE
$34B1  17 02 3E                           LBSR Sub_36F2          ; call Sub_36F2
$34B4  A6 C8 32                           LDA 50,U              
$34B7  10 3F 8F                           OS9 I$Close            ; path=A
$34BA  10 25 00 8E                        LBCS Loc_354C         
$34BE  6F C8 2D                           CLR 45,U              
$34C1  6F C8 2E                           CLR 46,U              
$34C4  17 E6 FF                           LBSR Sub_1BC6          ; call Sub_1BC6
$34C7  16 00 7A                           LBRA Loc_3544         

; --------------------------------------------------------------
$34CA  6D C8 28            Loc_34CA:      TST 40,U              
$34CD  26 26                              BNE Loc_34F5          
$34CF  30 8D D0 87                        LEAX Dat_055A,PC       ; X → Dat_055A
$34D3  17 DF 5B                           LBSR Sub_1431          ; call Sub_1431
$34D6  C6 1E                              LDB #$1E              
$34D8  17 DF B8                           LBSR Sub_1493          ; call Sub_1493
$34DB  17 ED 24                           LBSR Sub_2202          ; call Sub_2202
$34DE  10 25 00 62                        LBCS Loc_3544         
$34E2  EC C8 24                           LDD 36,U              
$34E5  ED C8 26                           STD 38,U              
$34E8  30 C9 09 D6                        LEAX 2518,U           
$34EC  31 C9 00 97                        LEAY 151,U            
$34F0  C6 20                              LDB #$20               ; B = SS.ScSiz  (GetStt/SetStt subcode)
$34F2  17 EF 60                           LBSR Sub_2455          ; call Sub_2455
$34F5  30 C9 00 97         Loc_34F5:      LEAX 151,U            
$34F9  A6 84                              LDA ,X                
$34FB  81 0D                              CMPA #$0D              ; compare A with CR
$34FD  10 27 00 43                        LBEQ Loc_3544         
$3501  86 02                              LDA #$02              
$3503  C6 03                              LDB #$03               ; B = SS.Reset  (GetStt/SetStt subcode)
$3505  10 3F 83                           OS9 I$Create           ; mode=B  name→X  → path→A
$3508  10 24 00 1E                        LBCC Loc_352A         
$350C  C1 DA                              CMPB #$DA             
$350E  10 26 00 3A                        LBNE Loc_354C         
$3512  30 8D D2 69                        LEAX Dat_077F,PC       ; X → Dat_077F
$3516  17 DF 18                           LBSR Sub_1431          ; call Sub_1431
$3519  17 ED 01            Loc_3519:      LBSR Sub_221D          ; call Sub_221D
$351C  81 41                              CMPA #$41              ; compare A with 'A'
$351E  27 54                              BEQ Loc_3574          
$3520  81 4F                              CMPA #$4F              ; compare A with 'O'
$3522  27 79                              BEQ Loc_359D          
$3524  81 0D                              CMPA #$0D              ; compare A with CR
$3526  27 1C                              BEQ Loc_3544          
$3528  20 EF                              BRA Loc_3519          

; --------------------------------------------------------------
$352A  A7 C8 32            Loc_352A:      STA 50,U              
$352D  6C C8 2D            Loc_352D:      INC 45,U              
$3530  6D C8 2C                           TST 44,U              
$3533  26 0F                              BNE Loc_3544          
$3535  6C C8 2E                           INC 46,U              
$3538  17 E6 89                           LBSR Sub_1BC4          ; call Sub_1BC4
$353B  A6 44                              LDA 4,U               
$353C  44                  Sub_353C:      LSRA                  
$353D  A0 48                              SUBA 8,U              
$353F  A7 4A                              STA 10,U              
$3541  17 01 CC                           LBSR Sub_3710          ; call Sub_3710
$3544  6F C8 2C            Loc_3544:      CLR 44,U              
$3547  17 E0 97                           LBSR Sub_15E1          ; call Sub_15E1
$354A  35 B6                              PULS A,B,X,Y,PC        ; return from subroutine  (PULS PC = RTS)

; --------------------------------------------------------------
$354C  86 07               Loc_354C:      LDA #$07              
$354E  17 E3 44                           LBSR Sub_1895          ; call Sub_1895
$3551  34 04                              PSHS B                
$3553  CC 0D 02                           LDD #$0D02            
$3556  17 E5 9D                           LBSR Sub_1AF6          ; call Sub_1AF6
$3559  30 8D CE CD                        LEAX Dat_042A,PC       ; X → Dat_042A
$355D  17 DE D1                           LBSR Sub_1431          ; call Sub_1431
$3560  35 04                              PULS B                
$3562  10 3F 0F                           OS9 F$PErr             ; path=A  error=B
$3565  8E 00 3C                           LDX #$003C            
$3568  10 3F 0A                           OS9 F$Sleep            ; ticks→X  (0=forever)
$356B  30 8D CE B7                        LEAX Dat_0426,PC       ; X → Dat_0426
$356F  17 DE BF                           LBSR Sub_1431          ; call Sub_1431
$3572  20 D0                              BRA Loc_3544          

; --------------------------------------------------------------
$3574  30 C9 00 97         Loc_3574:      LEAX 151,U            
$3578  86 03                              LDA #$03              
$357A  10 3F 84                           OS9 I$Open             ; mode=B  name→X  → path→A
$357D  24 0C                              BCC Loc_358B           ; C=0 (BHS)
$357F  10 3F 0F                           OS9 F$PErr             ; path=A  error=B
$3582  8E 00 3C                           LDX #$003C            
$3585  10 3F 0A                           OS9 F$Sleep            ; ticks→X  (0=forever)
$3588  16 FF C1                           LBRA Loc_354C         

; --------------------------------------------------------------
$358B  A7 C8 32            Loc_358B:      STA 50,U              
$358E  34 40                              PSHS U                
$3590  C6 02                              LDB #$02               ; B = SS.Size  (GetStt/SetStt subcode)
$3592  10 3F 8D                           OS9 I$GetStt           ; path=A  subcode=B  buf→X
$3595  10 3F 88                           OS9 I$Seek             ; path=A  mode=B  offset→X:D
$3598  35 40                              PULS U                
$359A  16 FF 90                           LBRA Loc_352D         

; --------------------------------------------------------------
$359D  30 C9 00 97         Loc_359D:      LEAX 151,U            
$35A1  10 3F 87                           OS9 I$Delete           ; name→X
$35A4  16 FF 4E                           LBRA Loc_34F5         

; --------------------------------------------------------------
$35A7  34 36               Sub_35A7:      PSHS A,B,X,Y          
$35A9  30 C9 0A D5                        LEAX 2773,U           
$35AD  10 AE C9 0E 50                     LDY 3664,U            
$35B2  1F 20                              TFR Y,D               
$35B4  10 AE 48                           LDY 8,U               
$35B7  A6 80               Loc_35B7:      LDA ,X+               
$35B9  81 0A                              CMPA #$0A              ; compare A with LF
$35BB  27 05                              BEQ Loc_35C2          
$35BD  A7 A0                              STA ,Y+               
$35BF  10 AF 48                           STY 8,U               
$35C2  5A                  Loc_35C2:      DECB                  
$35C3  10 AC 44                           CMPY 4,U              
$35C6  25 06                              BCS Loc_35CE           ; C=1 (BLO)
$35C8  17 00 13                           LBSR Sub_35DE          ; call Sub_35DE
$35CB  10 AE 48                           LDY 8,U               
$35CE  5D                  Loc_35CE:      TSTB                  
$35CF  26 E6                              BNE Loc_35B7          
$35D1  A6 44                              LDA 4,U               
$35D3  A0 48                              SUBA 8,U              
$35D5  A1 4A                              CMPA 10,U             
$35D7  27 03                              BEQ Loc_35DC          
$35D9  17 01 34                           LBSR Sub_3710          ; call Sub_3710
$35DC  35 B6               Loc_35DC:      PULS A,B,X,Y,PC        ; return from subroutine  (PULS PC = RTS)

; --------------------------------------------------------------
$35DE  34 36               Sub_35DE:      PSHS A,B,X,Y          
$35E0  6D C8 2D                           TST 45,U              
$35E3  27 2C                              BEQ Loc_3611          
$35E5  A6 C9 0E 76                        LDA 3702,U            
$35E9  27 06                              BEQ Loc_35F1          
$35EB  A7 C8 4C                           STA 76,U              
$35EE  17 E0 B4                           LBSR Sub_16A5          ; call Sub_16A5
$35F1  EC 48               Loc_35F1:      LDD 8,U               
$35F3  A3 46                              SUBD 6,U              
$35F5  1F 02                              TFR D,Y               
$35F7  30 C9 19 D5                        LEAX 6613,U           
$35FB  A6 C8 32                           LDA 50,U              
$35FE  10 3F 8A                           OS9 I$Write            ; path=A  count=Y  buf→X
$3601  EC 46                              LDD 6,U               
$3603  ED 48                              STD 8,U               
$3605  A6 C9 0E 75                        LDA 3701,U            
$3609  27 06                              BEQ Loc_3611          
$360B  A7 C8 4C                           STA 76,U              
$360E  17 E0 94                           LBSR Sub_16A5          ; call Sub_16A5
$3611  35 B6               Loc_3611:      PULS A,B,X,Y,PC        ; return from subroutine  (PULS PC = RTS)

; --------------------------------------------------------------
$3613  34 36               Sub_3613:      PSHS A,B,X,Y          
$3615  6F C8 2C                           CLR 44,U              
$3618  AE 42                              LDX 2,U               
$361A  A6 80               Loc_361A:      LDA ,X+               
$361C  81 0D                              CMPA #$0D              ; compare A with CR
$361E  27 37                              BEQ Loc_3657          
$3620  81 66                              CMPA #$66              ; compare A with 'f'
$3622  27 04                              BEQ Loc_3628          
$3624  81 46                              CMPA #$46              ; compare A with 'F'
$3626  26 F2                              BNE Loc_361A          
$3628  A6 1E               Loc_3628:      LDA -2,X              
$362A  81 20                              CMPA #$20              ; compare A with ' '
$362C  27 07                              BEQ Loc_3635          
$362E  81 2D                              CMPA #$2D              ; compare A with '-'
$3630  26 E8                              BNE Loc_361A          
$3632  6C C8 2C                           INC 44,U              
$3635  A6 80               Loc_3635:      LDA ,X+               
$3637  81 3D                              CMPA #$3D              ; compare A with '='
$3639  26 DF                              BNE Loc_361A          
$363B  31 C9 00 97                        LEAY 151,U            
$363F  5F                                 CLRB                   ; B = 0
$3640  A6 80               Loc_3640:      LDA ,X+               
$3642  A7 A0                              STA ,Y+               
$3644  5C                                 INCB                  
$3645  81 0D                              CMPA #$0D              ; compare A with CR
$3647  27 04                              BEQ Loc_364D          
$3649  C1 20                              CMPB #$20              ; compare B with ' '
$364B  25 F3                              BCS Loc_3640           ; C=1 (BLO)
$364D  4F                  Loc_364D:      CLRA                   ; A = 0
$364E  ED C8 26                           STD 38,U              
$3651  6C C8 28                           INC 40,U              
$3654  17 FD C4                           LBSR Sub_341B          ; call Sub_341B
$3657  6F C8 28            Loc_3657:      CLR 40,U              
$365A  35 B6                              PULS A,B,X,Y,PC        ; return from subroutine  (PULS PC = RTS)

; --------------------------------------------------------------
$365C  30 8D D1 04         Loc_365C:      LEAX Dat_0764,PC       ; X → Dat_0764
$3660  17 DD CE                           LBSR Sub_1431          ; call Sub_1431
$3663  30 8D CD BF                        LEAX Dat_0426,PC       ; X → Dat_0426
$3667  17 DD C7                           LBSR Sub_1431          ; call Sub_1431
$366A  30 8D CE EC                        LEAX Dat_055A,PC       ; X → Dat_055A
$366E  17 DD C0                           LBSR Sub_1431          ; call Sub_1431
$3671  C6 1E                              LDB #$1E              
$3673  17 DE 1D                           LBSR Sub_1493          ; call Sub_1493
$3676  17 EB 89                           LBSR Sub_2202          ; call Sub_2202
$3679  10 25 00 63                        LBCS Loc_36E0         
$367D  30 C9 09 D6                        LEAX 2518,U           
$3681  31 C9 15 C5                        LEAY 5573,U           
$3685  C6 20                              LDB #$20               ; B = SS.ScSiz  (GetStt/SetStt subcode)
$3687  17 ED CB                           LBSR Sub_2455          ; call Sub_2455
$368A  30 C9 15 C5                        LEAX 5573,U           
$368E  A6 84                              LDA ,X                
$3690  81 0D                              CMPA #$0D              ; compare A with CR
$3692  27 4C                              BEQ Loc_36E0          
$3694  86 01                              LDA #$01              
$3696  10 3F 84                           OS9 I$Open             ; mode=B  name→X  → path→A
$3699  25 45                              BCS Loc_36E0           ; C=1 (BLO)
$369B  A7 C8 34                           STA 52,U              
$369E  86 01                              LDA #$01              
$36A0  A7 C8 2B                           STA 43,U              
$36A3  17 DF 3B                           LBSR Sub_15E1          ; call Sub_15E1
$36A6  A6 C8 34            Loc_36A6:      LDA 52,U              
$36A9  30 C9 15 C5                        LEAX 5573,U           
$36AD  10 8E 00 FF                        LDY #$00FF            
$36B1  10 3F 8B                           OS9 I$ReadLn           ; path=A  max=Y  buf→X
$36B4  25 1F                              BCS Loc_36D5           ; C=1 (BLO)
$36B6  A6 C8 33                           LDA 51,U              
$36B9  30 C9 15 C5                        LEAX 5573,U           
$36BD  10 3F 8C                           OS9 I$WritLn           ; path=A  buf→X
$36C0  17 D8 91                           LBSR Sub_0F54          ; call Sub_0F54
$36C3  24 20                              BCC Loc_36E5           ; C=0 (BHS)
$36C5  16 D3 4A            Loc_36C5:      LBRA Loc_0A12         

; --------------------------------------------------------------
$36C8  8E 00 04            Loc_36C8:      LDX #$0004            
$36CB  10 3F 0A                           OS9 F$Sleep            ; ticks→X  (0=forever)
$36CE  17 D8 87                           LBSR Sub_0F58          ; call Sub_0F58
$36D1  24 F2                              BCC Loc_36C5           ; C=0 (BHS)
$36D3  20 D1                              BRA Loc_36A6          

; --------------------------------------------------------------
$36D5  A6 C8 34            Loc_36D5:      LDA 52,U              
$36D8  10 3F 8F                           OS9 I$Close            ; path=A
$36DB  6F C8 2B                           CLR 43,U              
$36DE  35 B6               Loc_36DE:      PULS A,B,X,Y,PC        ; return from subroutine  (PULS PC = RTS)

; --------------------------------------------------------------
$36E0  17 DE FE            Loc_36E0:      LBSR Sub_15E1          ; call Sub_15E1
$36E3  20 F9                              BRA Loc_36DE          

; --------------------------------------------------------------
$36E5  17 EB 35            Loc_36E5:      LBSR Sub_221D          ; call Sub_221D
$36E8  81 03                              CMPA #$03             
$36EA  27 E9                              BEQ Loc_36D5          
$36EC  81 05                              CMPA #$05             
$36EE  27 E5                              BEQ Loc_36D5          
$36F0  20 D3                              BRA Loc_36C5          

; --------------------------------------------------------------
$36F2  34 36               Sub_36F2:      PSHS A,B,X,Y          
$36F4  30 C9 15 C5                        LEAX 5573,U           
$36F8  CC 02 6A                           LDD #$026A            
$36FB  ED 84                              STD ,X                
$36FD  CC 20 20                           LDD #$2020            
$3700  ED 02                              STD 2,X               
$3702  ED 04                              STD 4,X               
$3704  A6 C8 46                           LDA 70,U              
$3707  10 8E 00 06                        LDY #$0006            
$370B  10 3F 8A                           OS9 I$Write            ; path=A  count=Y  buf→X
$370E  35 B6                              PULS A,B,X,Y,PC        ; return from subroutine  (PULS PC = RTS)

; --------------------------------------------------------------
$3710  34 36               Sub_3710:      PSHS A,B,X,Y          
$3712  A7 4A                              STA 10,U              
$3714  44                                 LSRA                  
$3715  44                                 LSRA                  
$3716  4C                                 INCA                  
$3717  30 C9 15 C5                        LEAX 5573,U           
$371B  34 02                              PSHS A                
$371D  CC 02 6A                           LDD #$026A            
$3720  ED 84                              STD ,X                
$3722  86 20                              LDA #$20               ; A = ' '
$3724  A7 02                              STA 2,X               
$3726  86 4B                              LDA #$4B               ; A = 'K'
$3728  A7 05                              STA 5,X               
$372A  CC 30 30                           LDD #$3030            
$372D  ED 03                              STD 3,X               
$372F  35 02                              PULS A                
$3731  81 0A               Loc_3731:      CMPA #$0A              ; compare A with LF
$3733  25 06                              BCS Loc_373B           ; C=1 (BLO)
$3735  80 0A                              SUBA #$0A             
$3737  6C 03                              INC 3,X               
$3739  20 F6                              BRA Loc_3731          

; --------------------------------------------------------------
$373B  AB 04               Loc_373B:      ADDA 4,X              
$373D  A7 04                              STA 4,X               
$373F  A6 03                              LDA 3,X               
$3741  81 30                              CMPA #$30              ; compare A with '0'
$3743  26 04                              BNE Loc_3749          
$3745  86 20                              LDA #$20               ; A = ' '
$3747  A7 03                              STA 3,X               
$3749  A6 C8 46            Loc_3749:      LDA 70,U              
$374C  10 8E 00 06                        LDY #$0006            
$3750  10 3F 8A                           OS9 I$Write            ; path=A  count=Y  buf→X
$3753  35 B6                              PULS A,B,X,Y,PC        ; return from subroutine  (PULS PC = RTS)

; ==============================================================
; ModEnd — CRC-24 appended by fixmod (not in source)
; ==============================================================
ModEnd
; CRC-24 (3 bytes) appended here by fixmod
         FCB    $00,$00,$00        ; CRC placeholder — overwritten by fixmod
ModCRC
ModSize  EQU    ModCRC-ModHeader   ; module size including 3 CRC bytes